ccopy_reg
_reconstructor
p1
(cmatplotlib.font_manager
FontManager
p2
c__builtin__
object
p3
NtRp4
(dp5
S'ttflist'
p6
(lp7
g1
(cmatplotlib.font_manager
FontEntry
p8
g3
NtRp9
(dp10
S'style'
p11
Vnormal
p12
sS'name'
p13
S'cmss10'
p14
sS'weight'
p15
I400
sS'stretch'
p16
g12
sS'variant'
p17
g12
sS'fname'
p18
VC:\u005cWinPython-32bit-2.7.9.2\u005cpython-2.7.9\u005clib\u005csite-packages\u005cmatplotlib\u005cmpl-data\u005cfonts\u005cttf\u005ccmss10.ttf
p19
sS'size'
p20
Vscalable
p21
sbag1
(g8
g3
NtRp22
(dp23
g11
g12
sg13
S'cmb10'
p24
sg15
I400
sg16
g12
sg17
g12
sg18
VC:\u005cWinPython-32bit-2.7.9.2\u005cpython-2.7.9\u005clib\u005csite-packages\u005cmatplotlib\u005cmpl-data\u005cfonts\u005cttf\u005ccmb10.ttf
p25
sg20
g21
sbag1
(g8
g3
NtRp26
(dp27
g11
g12
sg13
S'cmex10'
p28
sg15
I400
sg16
g12
sg17
g12
sg18
VC:\u005cWinPython-32bit-2.7.9.2\u005cpython-2.7.9\u005clib\u005csite-packages\u005cmatplotlib\u005cmpl-data\u005cfonts\u005cttf\u005ccmex10.ttf
p29
sg20
g21
sbag1
(g8
g3
NtRp30
(dp31
g11
g12
sg13
S'STIXSizeFourSym'
p32
sg15
I700
sg16
g12
sg17
g12
sg18
VC:\u005cWinPython-32bit-2.7.9.2\u005cpython-2.7.9\u005clib\u005csite-packages\u005cmatplotlib\u005cmpl-data\u005cfonts\u005cttf\u005cSTIXSizFourSymBol.ttf
p33
sg20
g21
sbag1
(g8
g3
NtRp34
(dp35
g11
g12
sg13
S'Bitstream Vera Serif'
p36
sg15
I700
sg16
g12
sg17
g12
sg18
VC:\u005cWinPython-32bit-2.7.9.2\u005cpython-2.7.9\u005clib\u005csite-packages\u005cmatplotlib\u005cmpl-data\u005cfonts\u005cttf\u005cVeraSeBd.ttf
p37
sg20
g21
sbag1
(g8
g3
NtRp38
(dp39
g11
Voblique
p40
sg13
S'Bitstream Vera Sans'
p41
sg15
I400
sg16
g12
sg17
g12
sg18
VC:\u005cWinPython-32bit-2.7.9.2\u005cpython-2.7.9\u005clib\u005csite-packages\u005cmatplotlib\u005cmpl-data\u005cfonts\u005cttf\u005cVeraIt.ttf
p42
sg20
g21
sbag1
(g8
g3
NtRp43
(dp44
g11
g12
sg13
S'Bitstream Vera Sans Mono'
p45
sg15
I700
sg16
g12
sg17
g12
sg18
VC:\u005cWinPython-32bit-2.7.9.2\u005cpython-2.7.9\u005clib\u005csite-packages\u005cmatplotlib\u005cmpl-data\u005cfonts\u005cttf\u005cVeraMoBd.ttf
p46
sg20
g21
sbag1
(g8
g3
NtRp47
(dp48
g11
g12
sg13
S'STIXGeneral'
p49
sg15
I700
sg16
g12
sg17
g12
sg18
VC:\u005cWinPython-32bit-2.7.9.2\u005cpython-2.7.9\u005clib\u005csite-packages\u005cmatplotlib\u005cmpl-data\u005cfonts\u005cttf\u005cSTIXGeneralBol.ttf
p50
sg20
g21
sbag1
(g8
g3
NtRp51
(dp52
g11
g12
sg13
S'STIXSizeTwoSym'
p53
sg15
I400
sg16
g12
sg17
g12
sg18
VC:\u005cWinPython-32bit-2.7.9.2\u005cpython-2.7.9\u005clib\u005csite-packages\u005cmatplotlib\u005cmpl-data\u005cfonts\u005cttf\u005cSTIXSizTwoSymReg.ttf
p54
sg20
g21
sbag1
(g8
g3
NtRp55
(dp56
g11
g40
sg13
S'Bitstream Vera Sans Mono'
p57
sg15
I400
sg16
g12
sg17
g12
sg18
VC:\u005cWinPython-32bit-2.7.9.2\u005cpython-2.7.9\u005clib\u005csite-packages\u005cmatplotlib\u005cmpl-data\u005cfonts\u005cttf\u005cVeraMoIt.ttf
p58
sg20
g21
sbag1
(g8
g3
NtRp59
(dp60
g11
g12
sg13
S'STIXNonUnicode'
p61
sg15
I400
sg16
g12
sg17
g12
sg18
VC:\u005cWinPython-32bit-2.7.9.2\u005cpython-2.7.9\u005clib\u005csite-packages\u005cmatplotlib\u005cmpl-data\u005cfonts\u005cttf\u005cSTIXNonUni.ttf
p62
sg20
g21
sbag1
(g8
g3
NtRp63
(dp64
g11
g12
sg13
S'cmsy10'
p65
sg15
I400
sg16
g12
sg17
g12
sg18
VC:\u005cWinPython-32bit-2.7.9.2\u005cpython-2.7.9\u005clib\u005csite-packages\u005cmatplotlib\u005cmpl-data\u005cfonts\u005cttf\u005ccmsy10.ttf
p66
sg20
g21
sbag1
(g8
g3
NtRp67
(dp68
g11
Vitalic
p69
sg13
S'STIXNonUnicode'
p70
sg15
I700
sg16
g12
sg17
g12
sg18
VC:\u005cWinPython-32bit-2.7.9.2\u005cpython-2.7.9\u005clib\u005csite-packages\u005cmatplotlib\u005cmpl-data\u005cfonts\u005cttf\u005cSTIXNonUniBolIta.ttf
p71
sg20
g21
sbag1
(g8
g3
NtRp72
(dp73
g11
g12
sg13
S'Bitstream Vera Sans Mono'
p74
sg15
I400
sg16
g12
sg17
g12
sg18
VC:\u005cWinPython-32bit-2.7.9.2\u005cpython-2.7.9\u005clib\u005csite-packages\u005cmatplotlib\u005cmpl-data\u005cfonts\u005cttf\u005cVeraMono.ttf
p75
sg20
g21
sbag1
(g8
g3
NtRp76
(dp77
g11
g12
sg13
S'STIXSizeOneSym'
p78
sg15
I400
sg16
g12
sg17
g12
sg18
VC:\u005cWinPython-32bit-2.7.9.2\u005cpython-2.7.9\u005clib\u005csite-packages\u005cmatplotlib\u005cmpl-data\u005cfonts\u005cttf\u005cSTIXSizOneSymReg.ttf
p79
sg20
g21
sbag1
(g8
g3
NtRp80
(dp81
g11
g69
sg13
S'STIXGeneral'
p82
sg15
I700
sg16
g12
sg17
g12
sg18
VC:\u005cWinPython-32bit-2.7.9.2\u005cpython-2.7.9\u005clib\u005csite-packages\u005cmatplotlib\u005cmpl-data\u005cfonts\u005cttf\u005cSTIXGeneralBolIta.ttf
p83
sg20
g21
sbag1
(g8
g3
NtRp84
(dp85
g11
g12
sg13
S'STIXSizeFiveSym'
p86
sg15
I400
sg16
g12
sg17
g12
sg18
VC:\u005cWinPython-32bit-2.7.9.2\u005cpython-2.7.9\u005clib\u005csite-packages\u005cmatplotlib\u005cmpl-data\u005cfonts\u005cttf\u005cSTIXSizFiveSymReg.ttf
p87
sg20
g21
sbag1
(g8
g3
NtRp88
(dp89
g11
g69
sg13
S'STIXGeneral'
p90
sg15
I400
sg16
g12
sg17
g12
sg18
VC:\u005cWinPython-32bit-2.7.9.2\u005cpython-2.7.9\u005clib\u005csite-packages\u005cmatplotlib\u005cmpl-data\u005cfonts\u005cttf\u005cSTIXGeneralItalic.ttf
p91
sg20
g21
sbag1
(g8
g3
NtRp92
(dp93
g11
g40
sg13
S'Bitstream Vera Sans Mono'
p94
sg15
I700
sg16
g12
sg17
g12
sg18
VC:\u005cWinPython-32bit-2.7.9.2\u005cpython-2.7.9\u005clib\u005csite-packages\u005cmatplotlib\u005cmpl-data\u005cfonts\u005cttf\u005cVeraMoBI.ttf
p95
sg20
g21
sbag1
(g8
g3
NtRp96
(dp97
g11
g12
sg13
S'cmr10'
p98
sg15
I400
sg16
g12
sg17
g12
sg18
VC:\u005cWinPython-32bit-2.7.9.2\u005cpython-2.7.9\u005clib\u005csite-packages\u005cmatplotlib\u005cmpl-data\u005cfonts\u005cttf\u005ccmr10.ttf
p99
sg20
g21
sbag1
(g8
g3
NtRp100
(dp101
g11
g12
sg13
S'STIXNonUnicode'
p102
sg15
I700
sg16
g12
sg17
g12
sg18
VC:\u005cWinPython-32bit-2.7.9.2\u005cpython-2.7.9\u005clib\u005csite-packages\u005cmatplotlib\u005cmpl-data\u005cfonts\u005cttf\u005cSTIXNonUniBol.ttf
p103
sg20
g21
sbag1
(g8
g3
NtRp104
(dp105
g11
g12
sg13
S'Bitstream Vera Sans'
p106
sg15
I400
sg16
g12
sg17
g12
sg18
VC:\u005cWinPython-32bit-2.7.9.2\u005cpython-2.7.9\u005clib\u005csite-packages\u005cmatplotlib\u005cmpl-data\u005cfonts\u005cttf\u005cVera.ttf
p107
sg20
g21
sbag1
(g8
g3
NtRp108
(dp109
g11
g12
sg13
S'cmtt10'
p110
sg15
I400
sg16
g12
sg17
g12
sg18
VC:\u005cWinPython-32bit-2.7.9.2\u005cpython-2.7.9\u005clib\u005csite-packages\u005cmatplotlib\u005cmpl-data\u005cfonts\u005cttf\u005ccmtt10.ttf
p111
sg20
g21
sbag1
(g8
g3
NtRp112
(dp113
g11
g12
sg13
S'STIXSizeOneSym'
p114
sg15
I700
sg16
g12
sg17
g12
sg18
VC:\u005cWinPython-32bit-2.7.9.2\u005cpython-2.7.9\u005clib\u005csite-packages\u005cmatplotlib\u005cmpl-data\u005cfonts\u005cttf\u005cSTIXSizOneSymBol.ttf
p115
sg20
g21
sbag1
(g8
g3
NtRp116
(dp117
g11
g12
sg13
S'STIXSizeThreeSym'
p118
sg15
I700
sg16
g12
sg17
g12
sg18
VC:\u005cWinPython-32bit-2.7.9.2\u005cpython-2.7.9\u005clib\u005csite-packages\u005cmatplotlib\u005cmpl-data\u005cfonts\u005cttf\u005cSTIXSizThreeSymBol.ttf
p119
sg20
g21
sbag1
(g8
g3
NtRp120
(dp121
g11
g12
sg13
S'Bitstream Vera Sans'
p122
sg15
I700
sg16
g12
sg17
g12
sg18
VC:\u005cWinPython-32bit-2.7.9.2\u005cpython-2.7.9\u005clib\u005csite-packages\u005cmatplotlib\u005cmpl-data\u005cfonts\u005cttf\u005cVeraBd.ttf
p123
sg20
g21
sbag1
(g8
g3
NtRp124
(dp125
g11
g69
sg13
S'STIXNonUnicode'
p126
sg15
I400
sg16
g12
sg17
g12
sg18
VC:\u005cWinPython-32bit-2.7.9.2\u005cpython-2.7.9\u005clib\u005csite-packages\u005cmatplotlib\u005cmpl-data\u005cfonts\u005cttf\u005cSTIXNonUniIta.ttf
p127
sg20
g21
sbag1
(g8
g3
NtRp128
(dp129
g11
g12
sg13
S'STIXGeneral'
p130
sg15
I400
sg16
g12
sg17
g12
sg18
VC:\u005cWinPython-32bit-2.7.9.2\u005cpython-2.7.9\u005clib\u005csite-packages\u005cmatplotlib\u005cmpl-data\u005cfonts\u005cttf\u005cSTIXGeneral.ttf
p131
sg20
g21
sbag1
(g8
g3
NtRp132
(dp133
g11
g12
sg13
S'STIXSizeTwoSym'
p134
sg15
I700
sg16
g12
sg17
g12
sg18
VC:\u005cWinPython-32bit-2.7.9.2\u005cpython-2.7.9\u005clib\u005csite-packages\u005cmatplotlib\u005cmpl-data\u005cfonts\u005cttf\u005cSTIXSizTwoSymBol.ttf
p135
sg20
g21
sbag1
(g8
g3
NtRp136
(dp137
g11
g12
sg13
S'cmmi10'
p138
sg15
I400
sg16
g12
sg17
g12
sg18
VC:\u005cWinPython-32bit-2.7.9.2\u005cpython-2.7.9\u005clib\u005csite-packages\u005cmatplotlib\u005cmpl-data\u005cfonts\u005cttf\u005ccmmi10.ttf
p139
sg20
g21
sbag1
(g8
g3
NtRp140
(dp141
g11
g12
sg13
S'STIXSizeFourSym'
p142
sg15
I400
sg16
g12
sg17
g12
sg18
VC:\u005cWinPython-32bit-2.7.9.2\u005cpython-2.7.9\u005clib\u005csite-packages\u005cmatplotlib\u005cmpl-data\u005cfonts\u005cttf\u005cSTIXSizFourSymReg.ttf
p143
sg20
g21
sbag1
(g8
g3
NtRp144
(dp145
g11
g40
sg13
S'Bitstream Vera Sans'
p146
sg15
I700
sg16
g12
sg17
g12
sg18
VC:\u005cWinPython-32bit-2.7.9.2\u005cpython-2.7.9\u005clib\u005csite-packages\u005cmatplotlib\u005cmpl-data\u005cfonts\u005cttf\u005cVeraBI.ttf
p147
sg20
g21
sbag1
(g8
g3
NtRp148
(dp149
g11
g12
sg13
S'Bitstream Vera Serif'
p150
sg15
I400
sg16
g12
sg17
g12
sg18
VC:\u005cWinPython-32bit-2.7.9.2\u005cpython-2.7.9\u005clib\u005csite-packages\u005cmatplotlib\u005cmpl-data\u005cfonts\u005cttf\u005cVeraSe.ttf
p151
sg20
g21
sbag1
(g8
g3
NtRp152
(dp153
g11
g12
sg13
S'STIXSizeThreeSym'
p154
sg15
I400
sg16
g12
sg17
g12
sg18
VC:\u005cWinPython-32bit-2.7.9.2\u005cpython-2.7.9\u005clib\u005csite-packages\u005cmatplotlib\u005cmpl-data\u005cfonts\u005cttf\u005cSTIXSizThreeSymReg.ttf
p155
sg20
g21
sbag1
(g8
g3
NtRp156
(dp157
g11
g12
sg13
S'Courier New'
p158
sg15
I400
sg16
g12
sg17
g12
sg18
VC:\u005cWindows\u005cFonts\u005ccour.ttf
p159
sg20
g21
sbag1
(g8
g3
NtRp160
(dp161
g11
g12
sg13
S'Footlight MT Light'
p162
sg15
I200
sg16
g12
sg17
g12
sg18
Vc:\u005cwindows\u005cfonts\u005cftltlt.ttf
p163
sg20
g21
sbag1
(g8
g3
NtRp164
(dp165
g11
g69
sg13
S'Browallia New'
p166
sg15
I400
sg16
g12
sg17
g12
sg18
Vc:\u005cwindows\u005cfonts\u005cbrowai.ttf
p167
sg20
g21
sbag1
(g8
g3
NtRp168
(dp169
g11
g12
sg13
S'Stencil'
p170
sg15
I400
sg16
g12
sg17
g12
sg18
VC:\u005cWindows\u005cFonts\u005cSTENCIL.TTF
p171
sg20
g21
sbag1
(g8
g3
NtRp172
(dp173
g11
g12
sg13
S'Source Sans Pro'
p174
sg15
I200
sg16
g12
sg17
g12
sg18
VC:\u005cWindows\u005cFonts\u005cSourceSansPro-ExtraLight.ttf
p175
sg20
g21
sbag1
(g8
g3
NtRp176
(dp177
g11
g12
sg13
S'Cambria'
p178
sg15
I700
sg16
g12
sg17
g12
sg18
Vc:\u005cwindows\u005cfonts\u005ccambriab.ttf
p179
sg20
g21
sbag1
(g8
g3
NtRp180
(dp181
g11
g69
sg13
S'Verdana'
p182
sg15
I700
sg16
g12
sg17
g12
sg18
VC:\u005cWindows\u005cFonts\u005cverdanaz.ttf
p183
sg20
g21
sbag1
(g8
g3
NtRp184
(dp185
g11
g69
sg13
S'Palatino Linotype'
p186
sg15
I700
sg16
g12
sg17
g12
sg18
VC:\u005cWindows\u005cFonts\u005cpalabi.ttf
p187
sg20
g21
sbag1
(g8
g3
NtRp188
(dp189
g11
g69
sg13
S'JasmineUPC'
p190
sg15
I400
sg16
g12
sg17
g12
sg18
Vc:\u005cwindows\u005cfonts\u005cupcji.ttf
p191
sg20
g21
sbag1
(g8
g3
NtRp192
(dp193
g11
g12
sg13
S'Microsoft Tai Le'
p194
sg15
I700
sg16
g12
sg17
g12
sg18
VC:\u005cWindows\u005cFonts\u005ctaileb.ttf
p195
sg20
g21
sbag1
(g8
g3
NtRp196
(dp197
g11
g12
sg13
S'Arial'
p198
sg15
I900
sg16
g12
sg17
g12
sg18
VC:\u005cWindows\u005cFonts\u005cariblk.ttf
p199
sg20
g21
sbag1
(g8
g3
NtRp200
(dp201
g11
g12
sg13
S'Trebuchet MS'
p202
sg15
I700
sg16
g12
sg17
g12
sg18
Vc:\u005cwindows\u005cfonts\u005ctrebucbd.ttf
p203
sg20
g21
sbag1
(g8
g3
NtRp204
(dp205
g11
g12
sg13
S'Segoe Marker'
p206
sg15
I400
sg16
g12
sg17
g12
sg18
Vc:\u005cwindows\u005cfonts\u005csegoemarker.ttf
p207
sg20
g21
sbag1
(g8
g3
NtRp208
(dp209
g11
g69
sg13
S'Bell MT'
p210
sg15
I400
sg16
g12
sg17
g12
sg18
Vc:\u005cwindows\u005cfonts\u005cbelli.ttf
p211
sg20
g21
sbag1
(g8
g3
NtRp212
(dp213
g11
g69
sg13
S'Bodoni MT'
p214
sg15
I900
sg16
g12
sg17
g12
sg18
Vc:\u005cwindows\u005cfonts\u005cbod_blai.ttf
p215
sg20
g21
sbag1
(g8
g3
NtRp216
(dp217
g11
g12
sg13
S'Copperplate Gothic Bold'
p218
sg15
I700
sg16
g12
sg17
g12
sg18
VC:\u005cWindows\u005cFonts\u005cCOPRGTB.TTF
p219
sg20
g21
sbag1
(g8
g3
NtRp220
(dp221
g11
g12
sg13
S'Berlin Sans FB'
p222
sg15
I700
sg16
g12
sg17
g12
sg18
VC:\u005cWindows\u005cFonts\u005cBRLNSB.TTF
p223
sg20
g21
sbag1
(g8
g3
NtRp224
(dp225
g11
g12
sg13
S'BrowalliaUPC'
p226
sg15
I400
sg16
g12
sg17
g12
sg18
Vc:\u005cwindows\u005cfonts\u005cbrowau.ttf
p227
sg20
g21
sbag1
(g8
g3
NtRp228
(dp229
g11
g12
sg13
S'Microsoft PhagsPa'
p230
sg15
I700
sg16
g12
sg17
g12
sg18
VC:\u005cWindows\u005cFonts\u005cphagspab.ttf
p231
sg20
g21
sbag1
(g8
g3
NtRp232
(dp233
g11
g12
sg13
S'Segoe WP'
p234
sg15
I400
sg16
g12
sg17
g12
sg18
VC:\u005cWindows\u005cFonts\u005cSegoeWP-Light.ttf
p235
sg20
g21
sbag1
(g8
g3
NtRp236
(dp237
g11
g12
sg13
S'KaiTi'
p238
sg15
I400
sg16
g12
sg17
g12
sg18
Vc:\u005cwindows\u005cfonts\u005csimkai.ttf
p239
sg20
g21
sbag1
(g8
g3
NtRp240
(dp241
g11
g12
sg13
S'FreeSans'
p242
sg15
I400
sg16
g12
sg17
g12
sg18
VC:\u005cWindows\u005cFonts\u005cFreeSans.ttf
p243
sg20
g21
sbag1
(g8
g3
NtRp244
(dp245
g11
g12
sg13
S'Candara'
p246
sg15
I700
sg16
g12
sg17
g12
sg18
VC:\u005cWindows\u005cFonts\u005cCANDARAB.TTF
p247
sg20
g21
sbag1
(g8
g3
NtRp248
(dp249
g11
g12
sg13
S'Franklin Gothic Demi'
p250
sg15
I600
sg16
g12
sg17
g12
sg18
Vc:\u005cwindows\u005cfonts\u005cfradm.ttf
p251
sg20
g21
sbag1
(g8
g3
NtRp252
(dp253
g11
g69
sg13
S'Trebuchet MS'
p254
sg15
I700
sg16
g12
sg17
g12
sg18
Vc:\u005cwindows\u005cfonts\u005ctrebucbi.ttf
p255
sg20
g21
sbag1
(g8
g3
NtRp256
(dp257
g11
g12
sg13
S'Monotype Corsiva'
p258
sg15
I400
sg16
g12
sg17
g12
sg18
Vc:\u005cwindows\u005cfonts\u005cmtcorsva.ttf
p259
sg20
g21
sbag1
(g8
g3
NtRp260
(dp261
g11
g69
sg13
S'Segoe UI'
p262
sg15
I700
sg16
g12
sg17
g12
sg18
Vc:\u005cwindows\u005cfonts\u005csegoeuiz.ttf
p263
sg20
g21
sbag1
(g8
g3
NtRp264
(dp265
g11
g12
sg13
S'Bodoni MT'
p266
sg15
I400
sg16
Vcondensed
p267
sg17
g12
sg18
Vc:\u005cwindows\u005cfonts\u005cbod_cr.ttf
p268
sg20
g21
sbag1
(g8
g3
NtRp269
(dp270
g11
g69
sg13
S'Bodoni MT'
p271
sg15
I700
sg16
g12
sg17
g12
sg18
Vc:\u005cwindows\u005cfonts\u005cbod_bi.ttf
p272
sg20
g21
sbag1
(g8
g3
NtRp273
(dp274
g11
g69
sg13
S'Gill Sans MT'
p275
sg15
I400
sg16
g12
sg17
g12
sg18
Vc:\u005cwindows\u005cfonts\u005cgili____.ttf
p276
sg20
g21
sbag1
(g8
g3
NtRp277
(dp278
g11
g12
sg13
S'Kunstler Script'
p279
sg15
I400
sg16
g12
sg17
g12
sg18
VC:\u005cWindows\u005cFonts\u005cKUNSTLER.TTF
p280
sg20
g21
sbag1
(g8
g3
NtRp281
(dp282
g11
g69
sg13
S'BrowalliaUPC'
p283
sg15
I700
sg16
g12
sg17
g12
sg18
Vc:\u005cwindows\u005cfonts\u005cbrowauz.ttf
p284
sg20
g21
sbag1
(g8
g3
NtRp285
(dp286
g11
g12
sg13
S'Malgun Gothic'
p287
sg15
I700
sg16
g12
sg17
g12
sg18
VC:\u005cWindows\u005cFonts\u005cmalgunbd.ttf
p288
sg20
g21
sbag1
(g8
g3
NtRp289
(dp290
g11
g12
sg13
S'Imprint MT Shadow'
p291
sg15
I400
sg16
g12
sg17
g12
sg18
Vc:\u005cwindows\u005cfonts\u005cimprisha.ttf
p292
sg20
g21
sbag1
(g8
g3
NtRp293
(dp294
g11
g12
sg13
S'PT Serif'
p295
sg15
I400
sg16
g12
sg17
g12
sg18
Vc:\u005cwindows\u005cfonts\u005cpt_serif-web-regular.ttf
p296
sg20
g21
sbag1
(g8
g3
NtRp297
(dp298
g11
g12
sg13
S'DokChampa'
p299
sg15
I400
sg16
g12
sg17
g12
sg18
VC:\u005cWindows\u005cFonts\u005cdokchamp.ttf
p300
sg20
g21
sbag1
(g8
g3
NtRp301
(dp302
g11
g12
sg13
S'PT Serif'
p303
sg15
I700
sg16
g12
sg17
g12
sg18
Vc:\u005cwindows\u005cfonts\u005cpt_serif-web-bold.ttf
p304
sg20
g21
sbag1
(g8
g3
NtRp305
(dp306
g11
g12
sg13
S'Curlz MT'
p307
sg15
I400
sg16
g12
sg17
g12
sg18
VC:\u005cWindows\u005cFonts\u005cCURLZ___.TTF
p308
sg20
g21
sbag1
(g8
g3
NtRp309
(dp310
g11
g69
sg13
S'Arial'
p311
sg15
I400
sg16
g12
sg17
g12
sg18
Vc:\u005cwindows\u005cfonts\u005cariali.ttf
p312
sg20
g21
sbag1
(g8
g3
NtRp313
(dp314
g11
g12
sg13
S'Tw Cen MT'
p315
sg15
I400
sg16
g12
sg17
g12
sg18
Vc:\u005cwindows\u005cfonts\u005ctcm_____.ttf
p316
sg20
g21
sbag1
(g8
g3
NtRp317
(dp318
g11
g12
sg13
S'Khmer UI'
p319
sg15
I700
sg16
g12
sg17
g12
sg18
Vc:\u005cwindows\u005cfonts\u005ckhmeruib.ttf
p320
sg20
g21
sbag1
(g8
g3
NtRp321
(dp322
g11
g12
sg13
S'Tw Cen MT Condensed'
p323
sg15
I700
sg16
g267
sg17
g12
sg18
Vc:\u005cwindows\u005cfonts\u005ctccb____.ttf
p324
sg20
g21
sbag1
(g8
g3
NtRp325
(dp326
g11
g40
sg13
S'DejaVu Sans'
p327
sg15
I700
sg16
g267
sg17
g12
sg18
VC:\u005cWindows\u005cFonts\u005cDejaVuSansCondensed-BoldOblique.ttf
p328
sg20
g21
sbag1
(g8
g3
NtRp329
(dp330
g11
g69
sg13
S'Gentium Book Basic'
p331
sg15
I700
sg16
g12
sg17
g12
sg18
Vc:\u005cwindows\u005cfonts\u005cgenbkbasbi.ttf
p332
sg20
g21
sbag1
(g8
g3
NtRp333
(dp334
g11
g12
sg13
S'Simplified Arabic'
p335
sg15
I400
sg16
g12
sg17
g12
sg18
Vc:\u005cwindows\u005cfonts\u005csimpo.ttf
p336
sg20
g21
sbag1
(g8
g3
NtRp337
(dp338
g11
g12
sg13
S'Arabic Typesetting'
p339
sg15
I400
sg16
g12
sg17
g12
sg18
Vc:\u005cwindows\u005cfonts\u005carabtype.ttf
p340
sg20
g21
sbag1
(g8
g3
NtRp341
(dp342
g11
g12
sg13
S'Kartika'
p343
sg15
I700
sg16
g12
sg17
g12
sg18
VC:\u005cWindows\u005cFonts\u005ckartikab.ttf
p344
sg20
g21
sbag1
(g8
g3
NtRp345
(dp346
g11
g12
sg13
S'Source Sans Pro'
p347
sg15
I700
sg16
g12
sg17
g12
sg18
VC:\u005cWindows\u005cFonts\u005cSourceSansPro-Semibold.ttf
p348
sg20
g21
sbag1
(g8
g3
NtRp349
(dp350
g11
g12
sg13
S'Khmer UI'
p351
sg15
I400
sg16
g12
sg17
g12
sg18
Vc:\u005cwindows\u005cfonts\u005ckhmerui.ttf
p352
sg20
g21
sbag1
(g8
g3
NtRp353
(dp354
g11
g12
sg13
S'Segoe UI'
p355
sg15
I400
sg16
g12
sg17
g12
sg18
Vc:\u005cwindows\u005cfonts\u005cseguisb.ttf
p356
sg20
g21
sbag1
(g8
g3
NtRp357
(dp358
g11
g69
sg13
S'IrisUPC'
p359
sg15
I700
sg16
g12
sg17
g12
sg18
VC:\u005cWindows\u005cFonts\u005cupcibi.ttf
p360
sg20
g21
sbag1
(g8
g3
NtRp361
(dp362
g11
g12
sg13
S'Kalinga'
p363
sg15
I400
sg16
g12
sg17
g12
sg18
VC:\u005cWindows\u005cFonts\u005ckalinga.ttf
p364
sg20
g21
sbag1
(g8
g3
NtRp365
(dp366
g11
g69
sg13
S'Open Sans'
p367
sg15
I400
sg16
g12
sg17
g12
sg18
Vc:\u005cwindows\u005cfonts\u005copensans-italic.ttf
p368
sg20
g21
sbag1
(g8
g3
NtRp369
(dp370
g11
g12
sg13
S'Kokila'
p371
sg15
I700
sg16
g12
sg17
g12
sg18
VC:\u005cWindows\u005cFonts\u005ckokilab.ttf
p372
sg20
g21
sbag1
(g8
g3
NtRp373
(dp374
g11
g12
sg13
S'Franklin Gothic Heavy'
p375
sg15
I800
sg16
g12
sg17
g12
sg18
VC:\u005cWindows\u005cFonts\u005cFRAHV.TTF
p376
sg20
g21
sbag1
(g8
g3
NtRp377
(dp378
g11
g12
sg13
S'Calibri'
p379
sg15
I200
sg16
g12
sg17
g12
sg18
VC:\u005cWindows\u005cFonts\u005ccalibril.ttf
p380
sg20
g21
sbag1
(g8
g3
NtRp381
(dp382
g11
g12
sg13
S'Cordia New'
p383
sg15
I700
sg16
g12
sg17
g12
sg18
VC:\u005cWindows\u005cFonts\u005ccordiab.ttf
p384
sg20
g21
sbag1
(g8
g3
NtRp385
(dp386
g11
g12
sg13
S'Liberation Serif'
p387
sg15
I400
sg16
g12
sg17
g12
sg18
Vc:\u005cwindows\u005cfonts\u005cliberationserif-regular.ttf
p388
sg20
g21
sbag1
(g8
g3
NtRp389
(dp390
g11
g12
sg13
S'Euphemia'
p391
sg15
I400
sg16
g12
sg17
g12
sg18
VC:\u005cWindows\u005cFonts\u005ceuphemia.ttf
p392
sg20
g21
sbag1
(g8
g3
NtRp393
(dp394
g11
g69
sg13
S'Georgia'
p395
sg15
I400
sg16
g12
sg17
g12
sg18
VC:\u005cWindows\u005cFonts\u005cgeorgiai.ttf
p396
sg20
g21
sbag1
(g8
g3
NtRp397
(dp398
g11
g12
sg13
S'Leelawadee'
p399
sg15
I700
sg16
g12
sg17
g12
sg18
VC:\u005cWindows\u005cFonts\u005cleelawdb.ttf
p400
sg20
g21
sbag1
(g8
g3
NtRp401
(dp402
g11
g12
sg13
S'Narkisim'
p403
sg15
I400
sg16
g12
sg17
g12
sg18
Vc:\u005cwindows\u005cfonts\u005cnrkis.ttf
p404
sg20
g21
sbag1
(g8
g3
NtRp405
(dp406
g11
g12
sg13
S'Caladea'
p407
sg15
I700
sg16
g12
sg17
g12
sg18
VC:\u005cWindows\u005cFonts\u005cCaladea-Bold.ttf
p408
sg20
g21
sbag1
(g8
g3
NtRp409
(dp410
g11
g12
sg13
S'DejaVu Serif'
p411
sg15
I700
sg16
g12
sg17
g12
sg18
Vc:\u005cwindows\u005cfonts\u005cdejavuserif-bold.ttf
p412
sg20
g21
sbag1
(g8
g3
NtRp413
(dp414
g11
g12
sg13
S'Baskerville Old Face'
p415
sg15
I400
sg16
g12
sg17
g12
sg18
VC:\u005cWindows\u005cFonts\u005cBASKVILL.TTF
p416
sg20
g21
sbag1
(g8
g3
NtRp417
(dp418
g11
g40
sg13
S'Lucida Sans Typewriter'
p419
sg15
I400
sg16
g12
sg17
g12
sg18
VC:\u005cWindows\u005cFonts\u005cLTYPEO.TTF
p420
sg20
g21
sbag1
(g8
g3
NtRp421
(dp422
g11
g12
sg13
S'Microsoft Himalaya'
p423
sg15
I400
sg16
g12
sg17
g12
sg18
VC:\u005cWindows\u005cFonts\u005chimalaya.ttf
p424
sg20
g21
sbag1
(g8
g3
NtRp425
(dp426
g11
g12
sg13
S'Tahoma'
p427
sg15
I700
sg16
g12
sg17
g12
sg18
Vc:\u005cwindows\u005cfonts\u005ctahomabd.ttf
p428
sg20
g21
sbag1
(g8
g3
NtRp429
(dp430
g11
g12
sg13
S'Cordia New'
p431
sg15
I400
sg16
g12
sg17
g12
sg18
VC:\u005cWindows\u005cFonts\u005ccordia.ttf
p432
sg20
g21
sbag1
(g8
g3
NtRp433
(dp434
g11
g69
sg13
S'Californian FB'
p435
sg15
I400
sg16
g12
sg17
g12
sg18
Vc:\u005cwindows\u005cfonts\u005ccalifi.ttf
p436
sg20
g21
sbag1
(g8
g3
NtRp437
(dp438
g11
g12
sg13
S'Gautami'
p439
sg15
I700
sg16
g12
sg17
g12
sg18
Vc:\u005cwindows\u005cfonts\u005cgautamib.ttf
p440
sg20
g21
sbag1
(g8
g3
NtRp441
(dp442
g11
g69
sg13
S'Linux Libertine G'
p443
sg15
I700
sg16
g12
sg17
g12
sg18
VC:\u005cWindows\u005cFonts\u005cLinLibertine_RZI_G.ttf
p444
sg20
g21
sbag1
(g8
g3
NtRp445
(dp446
g11
g12
sg13
S'DejaVu Sans'
p447
sg15
I700
sg16
g267
sg17
g12
sg18
Vc:\u005cwindows\u005cfonts\u005cdejavusanscondensed-bold.ttf
p448
sg20
g21
sbag1
(g8
g3
NtRp449
(dp450
g11
g12
sg13
S'Consolas'
p451
sg15
I400
sg16
g12
sg17
g12
sg18
Vc:\u005cwindows\u005cfonts\u005cconsola.ttf
p452
sg20
g21
sbag1
(g8
g3
NtRp453
(dp454
g11
g69
sg13
S'Gill Sans MT'
p455
sg15
I700
sg16
g12
sg17
g12
sg18
Vc:\u005cwindows\u005cfonts\u005cgilbi___.ttf
p456
sg20
g21
sbag1
(g8
g3
NtRp457
(dp458
g11
g12
sg13
S'Tempus Sans ITC'
p459
sg15
I400
sg16
g12
sg17
g12
sg18
VC:\u005cWindows\u005cFonts\u005cTEMPSITC.TTF
p460
sg20
g21
sbag1
(g8
g3
NtRp461
(dp462
g11
g69
sg13
S'Angsana New'
p463
sg15
I400
sg16
g12
sg17
g12
sg18
VC:\u005cWindows\u005cFonts\u005cangsai.ttf
p464
sg20
g21
sbag1
(g8
g3
NtRp465
(dp466
g11
g12
sg13
S'FreesiaUPC'
p467
sg15
I700
sg16
g12
sg17
g12
sg18
VC:\u005cWindows\u005cFonts\u005cupcfb.ttf
p468
sg20
g21
sbag1
(g8
g3
NtRp469
(dp470
g11
g12
sg13
S'Arial'
p471
sg15
I700
sg16
g12
sg17
g12
sg18
Vc:\u005cwindows\u005cfonts\u005carialbd.ttf
p472
sg20
g21
sbag1
(g8
g3
NtRp473
(dp474
g11
g12
sg13
S'Sakkal Majalla'
p475
sg15
I400
sg16
g12
sg17
g12
sg18
VC:\u005cWindows\u005cFonts\u005cmajalla.ttf
p476
sg20
g21
sbag1
(g8
g3
NtRp477
(dp478
g11
g40
sg13
S'DejaVu Sans'
p479
sg15
I700
sg16
g12
sg17
g12
sg18
VC:\u005cWindows\u005cFonts\u005cDejaVuSans-BoldOblique.ttf
p480
sg20
g21
sbag1
(g8
g3
NtRp481
(dp482
g11
g12
sg13
S'STXingkai'
p483
sg15
I400
sg16
g12
sg17
g12
sg18
VC:\u005cWindows\u005cFonts\u005cSTXINGKA.TTF
p484
sg20
g21
sbag1
(g8
g3
NtRp485
(dp486
g11
g12
sg13
S'Segoe Script'
p487
sg15
I700
sg16
g12
sg17
g12
sg18
VC:\u005cWindows\u005cFonts\u005csegoescb.ttf
p488
sg20
g21
sbag1
(g8
g3
NtRp489
(dp490
g11
g12
sg13
S'Gentium Book Basic'
p491
sg15
I700
sg16
g12
sg17
g12
sg18
VC:\u005cWindows\u005cFonts\u005cGenBkBasB.ttf
p492
sg20
g21
sbag1
(g8
g3
NtRp493
(dp494
g11
g12
sg13
S'Microsoft YaHei'
p495
sg15
I400
sg16
g12
sg17
g12
sg18
Vc:\u005cwindows\u005cfonts\u005cmsyh.ttf
p496
sg20
g21
sbag1
(g8
g3
NtRp497
(dp498
g11
g12
sg13
S'Tunga'
p499
sg15
I400
sg16
g12
sg17
g12
sg18
VC:\u005cWindows\u005cFonts\u005ctunga.ttf
p500
sg20
g21
sbag1
(g8
g3
NtRp501
(dp502
g11
g12
sg13
S'Lucida Fax'
p503
sg15
I700
sg16
g12
sg17
g12
sg18
Vc:\u005cwindows\u005cfonts\u005clfaxd.ttf
p504
sg20
g21
sbag1
(g8
g3
NtRp505
(dp506
g11
g69
sg13
S'Browallia New'
p507
sg15
I700
sg16
g12
sg17
g12
sg18
VC:\u005cWindows\u005cFonts\u005cbrowaz.ttf
p508
sg20
g21
sbag1
(g8
g3
NtRp509
(dp510
g11
g12
sg13
S'Viner Hand ITC'
p511
sg15
I400
sg16
g12
sg17
g12
sg18
VC:\u005cWindows\u005cFonts\u005cVINERITC.TTF
p512
sg20
g21
sbag1
(g8
g3
NtRp513
(dp514
g11
g69
sg13
S'Elephant'
p515
sg15
I400
sg16
g12
sg17
g12
sg18
VC:\u005cWindows\u005cFonts\u005cELEPHNTI.TTF
p516
sg20
g21
sbag1
(g8
g3
NtRp517
(dp518
g11
g12
sg13
S'Maiandra GD'
p519
sg15
I400
sg16
g12
sg17
g12
sg18
Vc:\u005cwindows\u005cfonts\u005cmaian.ttf
p520
sg20
g21
sbag1
(g8
g3
NtRp521
(dp522
g11
g69
sg13
S'Franklin Gothic Book'
p523
sg15
I400
sg16
g12
sg17
g12
sg18
Vc:\u005cwindows\u005cfonts\u005cfrabkit.ttf
p524
sg20
g21
sbag1
(g8
g3
NtRp525
(dp526
g11
g69
sg13
S'Segoe UI'
p527
sg15
I400
sg16
g12
sg17
g12
sg18
VC:\u005cWindows\u005cFonts\u005csegoeuii.ttf
p528
sg20
g21
sbag1
(g8
g3
NtRp529
(dp530
g11
g12
sg13
S'DejaVu Sans Mono'
p531
sg15
I400
sg16
g12
sg17
g12
sg18
VC:\u005cWindows\u005cFonts\u005cDejaVuSansMono.ttf
p532
sg20
g21
sbag1
(g8
g3
NtRp533
(dp534
g11
g12
sg13
S'Segoe UI'
p535
sg15
I400
sg16
g12
sg17
g12
sg18
Vc:\u005cwindows\u005cfonts\u005csegoeui.ttf
p536
sg20
g21
sbag1
(g8
g3
NtRp537
(dp538
g11
g12
sg13
S'Constantia'
p539
sg15
I400
sg16
g12
sg17
g12
sg18
VC:\u005cWindows\u005cFonts\u005cCONSTAN.TTF
p540
sg20
g21
sbag1
(g8
g3
NtRp541
(dp542
g11
g12
sg13
S'Levenim MT'
p543
sg15
I700
sg16
g12
sg17
g12
sg18
VC:\u005cWindows\u005cFonts\u005clvnmbd.ttf
p544
sg20
g21
sbag1
(g8
g3
NtRp545
(dp546
g11
g12
sg13
S'Lucida Sans Typewriter'
p547
sg15
I700
sg16
g12
sg17
g12
sg18
VC:\u005cWindows\u005cFonts\u005cLTYPEB.TTF
p548
sg20
g21
sbag1
(g8
g3
NtRp549
(dp550
g11
g69
sg13
S'Source Sans Pro'
p551
sg15
I400
sg16
g12
sg17
g12
sg18
VC:\u005cWindows\u005cFonts\u005cSourceSansPro-It.ttf
p552
sg20
g21
sbag1
(g8
g3
NtRp553
(dp554
g11
g12
sg13
S'Calisto MT'
p555
sg15
I700
sg16
g12
sg17
g12
sg18
VC:\u005cWindows\u005cFonts\u005cCALISTB.TTF
p556
sg20
g21
sbag1
(g8
g3
NtRp557
(dp558
g11
g12
sg13
S'Franklin Gothic Demi Cond'
p559
sg15
I600
sg16
g267
sg17
g12
sg18
VC:\u005cWindows\u005cFonts\u005cFRADMCN.TTF
p560
sg20
g21
sbag1
(g8
g3
NtRp561
(dp562
g11
g12
sg13
S'Linux Libertine Display G'
p563
sg15
I400
sg16
g12
sg17
g12
sg18
Vc:\u005cwindows\u005cfonts\u005clinlibertine_dr_g.ttf
p564
sg20
g21
sbag1
(g8
g3
NtRp565
(dp566
g11
g69
sg13
S'Book Antiqua'
p567
sg15
I700
sg16
g12
sg17
g12
sg18
Vc:\u005cwindows\u005cfonts\u005cantquabi.ttf
p568
sg20
g21
sbag1
(g8
g3
NtRp569
(dp570
g11
g69
sg13
S'Liberation Sans Narrow'
p571
sg15
I700
sg16
g267
sg17
g12
sg18
VC:\u005cWindows\u005cFonts\u005cLiberationSansNarrow-BoldItalic.ttf
p572
sg20
g21
sbag1
(g8
g3
NtRp573
(dp574
g11
g69
sg13
S'Tw Cen MT'
p575
sg15
I400
sg16
g12
sg17
g12
sg18
VC:\u005cWindows\u005cFonts\u005cTCMI____.TTF
p576
sg20
g21
sbag1
(g8
g3
NtRp577
(dp578
g11
g69
sg13
S'PT Serif'
p579
sg15
I400
sg16
g12
sg17
g12
sg18
Vc:\u005cwindows\u005cfonts\u005cpt_serif-web-italic.ttf
p580
sg20
g21
sbag1
(g8
g3
NtRp581
(dp582
g11
g12
sg13
S'Copperplate Gothic Light'
p583
sg15
I200
sg16
g12
sg17
g12
sg18
VC:\u005cWindows\u005cFonts\u005cCOPRGTL.TTF
p584
sg20
g21
sbag1
(g8
g3
NtRp585
(dp586
g11
g12
sg13
S'Kristen ITC'
p587
sg15
I400
sg16
g12
sg17
g12
sg18
VC:\u005cWindows\u005cFonts\u005cITCKRIST.TTF
p588
sg20
g21
sbag1
(g8
g3
NtRp589
(dp590
g11
g12
sg13
S'Source Code Pro'
p591
sg15
I200
sg16
g12
sg17
g12
sg18
VC:\u005cWindows\u005cFonts\u005cSourceCodePro-ExtraLight.ttf
p592
sg20
g21
sbag1
(g8
g3
NtRp593
(dp594
g11
g12
sg13
S'Marlett'
p595
sg15
I400
sg16
g12
sg17
g12
sg18
VC:\u005cWindows\u005cFonts\u005cmarlett.ttf
p596
sg20
g21
sbag1
(g8
g3
NtRp597
(dp598
g11
g12
sg13
S'FreeSans'
p599
sg15
I400
sg16
g12
sg17
g12
sg18
Vc:\u005cwindows\u005cfonts\u005cfreesans.ttf
p600
sg20
g21
sbag1
(g8
g3
NtRp601
(dp602
g11
g12
sg13
S'Browallia New'
p603
sg15
I700
sg16
g12
sg17
g12
sg18
Vc:\u005cwindows\u005cfonts\u005cbrowab.ttf
p604
sg20
g21
sbag1
(g8
g3
NtRp605
(dp606
g11
g12
sg13
S'Corbel'
p607
sg15
I700
sg16
g12
sg17
g12
sg18
Vc:\u005cwindows\u005cfonts\u005ccorbelb.ttf
p608
sg20
g21
sbag1
(g8
g3
NtRp609
(dp610
g11
g12
sg13
S'Garamond'
p611
sg15
I400
sg16
g12
sg17
g12
sg18
Vc:\u005cwindows\u005cfonts\u005cgara.ttf
p612
sg20
g21
sbag1
(g8
g3
NtRp613
(dp614
g11
g12
sg13
S'Simplified Arabic'
p615
sg15
I700
sg16
g12
sg17
g12
sg18
Vc:\u005cwindows\u005cfonts\u005csimpbdo.ttf
p616
sg20
g21
sbag1
(g8
g3
NtRp617
(dp618
g11
g12
sg13
S'Franklin Gothic Book'
p619
sg15
I400
sg16
g12
sg17
g12
sg18
VC:\u005cWindows\u005cFonts\u005cFRABK.TTF
p620
sg20
g21
sbag1
(g8
g3
NtRp621
(dp622
g11
g12
sg13
S'DejaVu Sans'
p623
sg15
I200
sg16
g12
sg17
g12
sg18
VC:\u005cWindows\u005cFonts\u005cDejaVuSans-ExtraLight.ttf
p624
sg20
g21
sbag1
(g8
g3
NtRp625
(dp626
g11
g12
sg13
S'Informal Roman'
p627
sg15
I500
sg16
g12
sg17
g12
sg18
Vc:\u005cwindows\u005cfonts\u005cinfroman.ttf
p628
sg20
g21
sbag1
(g8
g3
NtRp629
(dp630
g11
g12
sg13
S'STXinwei'
p631
sg15
I400
sg16
g12
sg17
g12
sg18
Vc:\u005cwindows\u005cfonts\u005cstxinwei.ttf
p632
sg20
g21
sbag1
(g8
g3
NtRp633
(dp634
g11
g12
sg13
S'LilyUPC'
p635
sg15
I400
sg16
g12
sg17
g12
sg18
VC:\u005cWindows\u005cFonts\u005cupcll.ttf
p636
sg20
g21
sbag1
(g8
g3
NtRp637
(dp638
g11
g12
sg13
S'Agency FB'
p639
sg15
I700
sg16
g12
sg17
g12
sg18
Vc:\u005cwindows\u005cfonts\u005cagencyb.ttf
p640
sg20
g21
sbag1
(g8
g3
NtRp641
(dp642
g11
g12
sg13
S'Kristen ITC'
p643
sg15
I400
sg16
g12
sg17
g12
sg18
Vc:\u005cwindows\u005cfonts\u005citckrist.ttf
p644
sg20
g21
sbag1
(g8
g3
NtRp645
(dp646
g11
g69
sg13
S'Gentium Book Basic'
p647
sg15
I700
sg16
g12
sg17
g12
sg18
VC:\u005cWindows\u005cFonts\u005cGenBkBasBI.ttf
p648
sg20
g21
sbag1
(g8
g3
NtRp649
(dp650
g11
g12
sg13
S'Arial Rounded MT Bold'
p651
sg15
I700
sg16
g12
sg17
g12
sg18
VC:\u005cWindows\u005cFonts\u005cARLRDBD.TTF
p652
sg20
g21
sbag1
(g8
g3
NtRp653
(dp654
g11
g12
sg13
S'Blackadder ITC'
p655
sg15
I900
sg16
g12
sg17
g12
sg18
VC:\u005cWindows\u005cFonts\u005cITCBLKAD.TTF
p656
sg20
g21
sbag1
(g8
g3
NtRp657
(dp658
g11
g12
sg13
S'Cooper Black'
p659
sg15
I900
sg16
g12
sg17
g12
sg18
Vc:\u005cwindows\u005cfonts\u005ccoopbl.ttf
p660
sg20
g21
sbag1
(g8
g3
NtRp661
(dp662
g11
g12
sg13
S'Precious'
p663
sg15
I400
sg16
g12
sg17
g12
sg18
VC:\u005cWindows\u005cFonts\u005cPrecious.ttf
p664
sg20
g21
sbag1
(g8
g3
NtRp665
(dp666
g11
g12
sg13
S'FZYaoTi'
p667
sg15
I400
sg16
g12
sg17
g12
sg18
Vc:\u005cwindows\u005cfonts\u005cfzytk.ttf
p668
sg20
g21
sbag1
(g8
g3
NtRp669
(dp670
g11
g40
sg13
S'Lucida Sans Typewriter'
p671
sg15
I700
sg16
g12
sg17
g12
sg18
Vc:\u005cwindows\u005cfonts\u005cltypebo.ttf
p672
sg20
g21
sbag1
(g8
g3
NtRp673
(dp674
g11
g12
sg13
S'Vrinda'
p675
sg15
I700
sg16
g12
sg17
g12
sg18
VC:\u005cWindows\u005cFonts\u005cvrindab.ttf
p676
sg20
g21
sbag1
(g8
g3
NtRp677
(dp678
g11
g12
sg13
S'Kalinga'
p679
sg15
I700
sg16
g12
sg17
g12
sg18
VC:\u005cWindows\u005cFonts\u005ckalingab.ttf
p680
sg20
g21
sbag1
(g8
g3
NtRp681
(dp682
g11
g12
sg13
S'Microsoft MHei'
p683
sg15
I700
sg16
g12
sg17
g12
sg18
VC:\u005cWindows\u005cFonts\u005cMSMHei-Bold.ttf
p684
sg20
g21
sbag1
(g8
g3
NtRp685
(dp686
g11
g69
sg13
S'Calibri'
p687
sg15
I400
sg16
g12
sg17
g12
sg18
VC:\u005cWindows\u005cFonts\u005ccalibrii.ttf
p688
sg20
g21
sbag1
(g8
g3
NtRp689
(dp690
g11
g12
sg13
S'STKaiti'
p691
sg15
I400
sg16
g12
sg17
g12
sg18
Vc:\u005cwindows\u005cfonts\u005cstkaiti.ttf
p692
sg20
g21
sbag1
(g8
g3
NtRp693
(dp694
g11
g12
sg13
S'Source Sans Pro'
p695
sg15
I900
sg16
g12
sg17
g12
sg18
VC:\u005cWindows\u005cFonts\u005cSourceSansPro-Black.ttf
p696
sg20
g21
sbag1
(g8
g3
NtRp697
(dp698
g11
g69
sg13
S'Franklin Gothic Medium'
p699
sg15
I500
sg16
g12
sg17
g12
sg18
VC:\u005cWindows\u005cFonts\u005cframdit.ttf
p700
sg20
g21
sbag1
(g8
g3
NtRp701
(dp702
g11
g12
sg13
S'Cambria'
p703
sg15
I700
sg16
g12
sg17
g12
sg18
VC:\u005cWindows\u005cFonts\u005cCAMBRIAB.TTF
p704
sg20
g21
sbag1
(g8
g3
NtRp705
(dp706
g11
g69
sg13
S'Utsaah'
p707
sg15
I400
sg16
g12
sg17
g12
sg18
Vc:\u005cwindows\u005cfonts\u005cutsaahi.ttf
p708
sg20
g21
sbag1
(g8
g3
NtRp709
(dp710
g11
g12
sg13
S'Source Sans Pro'
p711
sg15
I700
sg16
g12
sg17
g12
sg18
VC:\u005cWindows\u005cFonts\u005cSourceSansPro-Bold.ttf
p712
sg20
g21
sbag1
(g8
g3
NtRp713
(dp714
g11
g12
sg13
S'Modern No. 20'
p715
sg15
I400
sg16
g12
sg17
g12
sg18
Vc:\u005cwindows\u005cfonts\u005cmod20.ttf
p716
sg20
g21
sbag1
(g8
g3
NtRp717
(dp718
g11
g69
sg13
S'DilleniaUPC'
p719
sg15
I400
sg16
g12
sg17
g12
sg18
Vc:\u005cwindows\u005cfonts\u005cupcdi.ttf
p720
sg20
g21
sbag1
(g8
g3
NtRp721
(dp722
g11
g69
sg13
S'Constantia'
p723
sg15
I400
sg16
g12
sg17
g12
sg18
VC:\u005cWindows\u005cFonts\u005cCONSTANI.TTF
p724
sg20
g21
sbag1
(g8
g3
NtRp725
(dp726
g11
g12
sg13
S'DFKai-SB'
p727
sg15
I400
sg16
g12
sg17
g12
sg18
VC:\u005cWindows\u005cFonts\u005ckaiu.ttf
p728
sg20
g21
sbag1
(g8
g3
NtRp729
(dp730
g11
g12
sg13
S'OCR A Extended'
p731
sg15
I400
sg16
g12
sg17
g12
sg18
Vc:\u005cwindows\u005cfonts\u005cocraext.ttf
p732
sg20
g21
sbag1
(g8
g3
NtRp733
(dp734
g11
g69
sg13
S'DejaVu Serif'
p735
sg15
I400
sg16
g12
sg17
g12
sg18
Vc:\u005cwindows\u005cfonts\u005cdejavuserif-italic.ttf
p736
sg20
g21
sbag1
(g8
g3
NtRp737
(dp738
g11
g69
sg13
S'AngsanaUPC'
p739
sg15
I700
sg16
g12
sg17
g12
sg18
Vc:\u005cwindows\u005cfonts\u005cangsauz.ttf
p740
sg20
g21
sbag1
(g8
g3
NtRp741
(dp742
g11
g12
sg13
S'Shonar Bangla'
p743
sg15
I400
sg16
g12
sg17
g12
sg18
Vc:\u005cwindows\u005cfonts\u005cshonar.ttf
p744
sg20
g21
sbag1
(g8
g3
NtRp745
(dp746
g11
g12
sg13
S'YouYuan'
p747
sg15
I400
sg16
g12
sg17
g12
sg18
Vc:\u005cwindows\u005cfonts\u005csimyou.ttf
p748
sg20
g21
sbag1
(g8
g3
NtRp749
(dp750
g11
g12
sg13
S'STXihei'
p751
sg15
I400
sg16
g12
sg17
g12
sg18
VC:\u005cWindows\u005cFonts\u005cSTXIHEI.TTF
p752
sg20
g21
sbag1
(g8
g3
NtRp753
(dp754
g11
g12
sg13
S'Goudy Old Style'
p755
sg15
I700
sg16
g12
sg17
g12
sg18
VC:\u005cWindows\u005cFonts\u005cGOUDOSB.TTF
p756
sg20
g21
sbag1
(g8
g3
NtRp757
(dp758
g11
g12
sg13
S'STFangsong'
p759
sg15
I400
sg16
g12
sg17
g12
sg18
VC:\u005cWindows\u005cFonts\u005cSTFANGSO.TTF
p760
sg20
g21
sbag1
(g8
g3
NtRp761
(dp762
g11
g69
sg13
S'Lucida Sans'
p763
sg15
I400
sg16
g12
sg17
g12
sg18
Vc:\u005cwindows\u005cfonts\u005clsansi.ttf
p764
sg20
g21
sbag1
(g8
g3
NtRp765
(dp766
g11
g69
sg13
S'KodchiangUPC'
p767
sg15
I400
sg16
g12
sg17
g12
sg18
VC:\u005cWindows\u005cFonts\u005cupcki.ttf
p768
sg20
g21
sbag1
(g8
g3
NtRp769
(dp770
g11
g12
sg13
S'Utsaah'
p771
sg15
I700
sg16
g12
sg17
g12
sg18
VC:\u005cWindows\u005cFonts\u005cutsaahb.ttf
p772
sg20
g21
sbag1
(g8
g3
NtRp773
(dp774
g11
g12
sg13
S'Eras Medium ITC'
p775
sg15
I500
sg16
g12
sg17
g12
sg18
Vc:\u005cwindows\u005cfonts\u005cerasmd.ttf
p776
sg20
g21
sbag1
(g8
g3
NtRp777
(dp778
g11
g69
sg13
S'Verdana'
p779
sg15
I400
sg16
g12
sg17
g12
sg18
Vc:\u005cwindows\u005cfonts\u005cverdanai.ttf
p780
sg20
g21
sbag1
(g8
g3
NtRp781
(dp782
g11
g12
sg13
S'Gill Sans MT Ext Condensed Bold'
p783
sg15
I700
sg16
g267
sg17
g12
sg18
VC:\u005cWindows\u005cFonts\u005cGLSNECB.TTF
p784
sg20
g21
sbag1
(g8
g3
NtRp785
(dp786
g11
g12
sg13
S'Jokerman'
p787
sg15
I400
sg16
g12
sg17
g12
sg18
VC:\u005cWindows\u005cFonts\u005cJOKERMAN.TTF
p788
sg20
g21
sbag1
(g8
g3
NtRp789
(dp790
g11
g69
sg13
S'Franklin Gothic Demi'
p791
sg15
I600
sg16
g12
sg17
g12
sg18
Vc:\u005cwindows\u005cfonts\u005cfradmit.ttf
p792
sg20
g21
sbag1
(g8
g3
NtRp793
(dp794
g11
g69
sg13
S'Linux Libertine G'
p795
sg15
I700
sg16
g12
sg17
g12
sg18
VC:\u005cWindows\u005cFonts\u005cLinLibertine_RBI_G.ttf
p796
sg20
g21
sbag1
(g8
g3
NtRp797
(dp798
g11
g12
sg13
S'Wingdings 2'
p799
sg15
I400
sg16
g12
sg17
g12
sg18
VC:\u005cWindows\u005cFonts\u005cWINGDNG2.TTF
p800
sg20
g21
sbag1
(g8
g3
NtRp801
(dp802
g11
g12
sg13
S'Source Code Pro'
p803
sg15
I200
sg16
g12
sg17
g12
sg18
VC:\u005cWindows\u005cFonts\u005cSourceCodePro-Light.ttf
p804
sg20
g21
sbag1
(g8
g3
NtRp805
(dp806
g11
g12
sg13
S'Utsaah'
p807
sg15
I400
sg16
g12
sg17
g12
sg18
Vc:\u005cwindows\u005cfonts\u005cutsaah.ttf
p808
sg20
g21
sbag1
(g8
g3
NtRp809
(dp810
g11
g12
sg13
S'Microsoft YaHei'
p811
sg15
I700
sg16
g12
sg17
g12
sg18
Vc:\u005cwindows\u005cfonts\u005cmsyhbd.ttf
p812
sg20
g21
sbag1
(g8
g3
NtRp813
(dp814
g11
g12
sg13
S'Segoe WP'
p815
sg15
I400
sg16
g12
sg17
g12
sg18
VC:\u005cWindows\u005cFonts\u005cSegoeWP-Semilight.ttf
p816
sg20
g21
sbag1
(g8
g3
NtRp817
(dp818
g11
g69
sg13
S'Georgia'
p819
sg15
I700
sg16
g12
sg17
g12
sg18
Vc:\u005cwindows\u005cfonts\u005cgeorgiaz.ttf
p820
sg20
g21
sbag1
(g8
g3
NtRp821
(dp822
g11
g69
sg13
S'Bodoni MT'
p823
sg15
I900
sg16
g12
sg17
g12
sg18
VC:\u005cWindows\u005cFonts\u005cBOD_BLAI.TTF
p824
sg20
g21
sbag1
(g8
g3
NtRp825
(dp826
g11
g69
sg13
S'Calisto MT'
p827
sg15
I400
sg16
g12
sg17
g12
sg18
Vc:\u005cwindows\u005cfonts\u005ccalisti.ttf
p828
sg20
g21
sbag1
(g8
g3
NtRp829
(dp830
g11
g12
sg13
S'Sylfaen'
p831
sg15
I400
sg16
g12
sg17
g12
sg18
Vc:\u005cwindows\u005cfonts\u005csylfaen.ttf
p832
sg20
g21
sbag1
(g8
g3
NtRp833
(dp834
g11
g69
sg13
S'Liberation Mono'
p835
sg15
I400
sg16
g12
sg17
g12
sg18
VC:\u005cWindows\u005cFonts\u005cLiberationMono-Italic.ttf
p836
sg20
g21
sbag1
(g8
g3
NtRp837
(dp838
g11
g12
sg13
S'Rockwell Condensed'
p839
sg15
I700
sg16
g267
sg17
g12
sg18
Vc:\u005cwindows\u005cfonts\u005croccb___.ttf
p840
sg20
g21
sbag1
(g8
g3
NtRp841
(dp842
g11
g12
sg13
S'Lucida Sans'
p843
sg15
I700
sg16
g12
sg17
g12
sg18
VC:\u005cWindows\u005cFonts\u005cLSANSD.TTF
p844
sg20
g21
sbag1
(g8
g3
NtRp845
(dp846
g11
g12
sg13
S'Microsoft NeoGothic'
p847
sg15
I700
sg16
g12
sg17
g12
sg18
VC:\u005cWindows\u005cFonts\u005cMSNeoGothic-Bold.ttf
p848
sg20
g21
sbag1
(g8
g3
NtRp849
(dp850
g11
g12
sg13
S'Lucida Sans'
p851
sg15
I400
sg16
g12
sg17
g12
sg18
VC:\u005cWindows\u005cFonts\u005cLSANS.TTF
p852
sg20
g21
sbag1
(g8
g3
NtRp853
(dp854
g11
g69
sg13
S'Calibri'
p855
sg15
I700
sg16
g12
sg17
g12
sg18
VC:\u005cWindows\u005cFonts\u005ccalibriz.ttf
p856
sg20
g21
sbag1
(g8
g3
NtRp857
(dp858
g11
g12
sg13
S'Aharoni'
p859
sg15
I700
sg16
g12
sg17
g12
sg18
Vc:\u005cwindows\u005cfonts\u005cahronbd.ttf
p860
sg20
g21
sbag1
(g8
g3
NtRp861
(dp862
g11
g12
sg13
S'Microsoft JhengHei'
p863
sg15
I700
sg16
g12
sg17
g12
sg18
VC:\u005cWindows\u005cFonts\u005cmsjhbd.ttf
p864
sg20
g21
sbag1
(g8
g3
NtRp865
(dp866
g11
g12
sg13
S'jsMath-cmr10'
p867
sg15
I400
sg16
g12
sg17
g12
sg18
VC:\u005cWindows\u005cFonts\u005cjsMath-cmr10.ttf
p868
sg20
g21
sbag1
(g8
g3
NtRp869
(dp870
g11
g12
sg13
S'Eras Medium ITC'
p871
sg15
I500
sg16
g12
sg17
g12
sg18
VC:\u005cWindows\u005cFonts\u005cERASMD.TTF
p872
sg20
g21
sbag1
(g8
g3
NtRp873
(dp874
g11
g69
sg13
S'PT Serif'
p875
sg15
I700
sg16
g12
sg17
g12
sg18
Vc:\u005cwindows\u005cfonts\u005cpt_serif-web-bolditalic.ttf
p876
sg20
g21
sbag1
(g8
g3
NtRp877
(dp878
g11
g12
sg13
S'STKaiti'
p879
sg15
I400
sg16
g12
sg17
g12
sg18
VC:\u005cWindows\u005cFonts\u005cSTKAITI.TTF
p880
sg20
g21
sbag1
(g8
g3
NtRp881
(dp882
g11
g69
sg13
S'Century Schoolbook'
p883
sg15
I400
sg16
g12
sg17
g12
sg18
Vc:\u005cwindows\u005cfonts\u005cschlbki.ttf
p884
sg20
g21
sbag1
(g8
g3
NtRp885
(dp886
g11
g69
sg13
S'Gentium Basic'
p887
sg15
I700
sg16
g12
sg17
g12
sg18
Vc:\u005cwindows\u005cfonts\u005cgenbasbi.ttf
p888
sg20
g21
sbag1
(g8
g3
NtRp889
(dp890
g11
g12
sg13
S'EucrosiaUPC'
p891
sg15
I400
sg16
g12
sg17
g12
sg18
Vc:\u005cwindows\u005cfonts\u005cupcel.ttf
p892
sg20
g21
sbag1
(g8
g3
NtRp893
(dp894
g11
g12
sg13
S'Book Antiqua'
p895
sg15
I400
sg16
g12
sg17
g12
sg18
VC:\u005cWindows\u005cFonts\u005cBKANT.TTF
p896
sg20
g21
sbag1
(g8
g3
NtRp897
(dp898
g11
g12
sg13
S'Precious'
p899
sg15
I400
sg16
g12
sg17
g12
sg18
Vc:\u005cwindows\u005cfonts\u005cprecious.ttf
p900
sg20
g21
sbag1
(g8
g3
NtRp901
(dp902
g11
g12
sg13
S'Angsana New'
p903
sg15
I700
sg16
g12
sg17
g12
sg18
VC:\u005cWindows\u005cFonts\u005cangsab.ttf
p904
sg20
g21
sbag1
(g8
g3
NtRp905
(dp906
g11
g12
sg13
S'LilyUPC'
p907
sg15
I700
sg16
g12
sg17
g12
sg18
Vc:\u005cwindows\u005cfonts\u005cupclb.ttf
p908
sg20
g21
sbag1
(g8
g3
NtRp909
(dp910
g11
g69
sg13
S'Cambria'
p911
sg15
I400
sg16
g12
sg17
g12
sg18
Vc:\u005cwindows\u005cfonts\u005ccambriai.ttf
p912
sg20
g21
sbag1
(g8
g3
NtRp913
(dp914
g11
g12
sg13
S'Gentium Book Basic'
p915
sg15
I400
sg16
g12
sg17
g12
sg18
Vc:\u005cwindows\u005cfonts\u005cgenbkbasr.ttf
p916
sg20
g21
sbag1
(g8
g3
NtRp917
(dp918
g11
g12
sg13
S'Arial'
p919
sg15
I400
sg16
g267
sg17
g12
sg18
VC:\u005cWindows\u005cFonts\u005cARIALN.TTF
p920
sg20
g21
sbag1
(g8
g3
NtRp921
(dp922
g11
g12
sg13
S'KodchiangUPC'
p923
sg15
I400
sg16
g12
sg17
g12
sg18
Vc:\u005cwindows\u005cfonts\u005cupckl.ttf
p924
sg20
g21
sbag1
(g8
g3
NtRp925
(dp926
g11
g69
sg13
S'AngsanaUPC'
p927
sg15
I400
sg16
g12
sg17
g12
sg18
Vc:\u005cwindows\u005cfonts\u005cangsaui.ttf
p928
sg20
g21
sbag1
(g8
g3
NtRp929
(dp930
g11
g69
sg13
S'jsMath-cmmi10'
p931
sg15
I400
sg16
g12
sg17
g12
sg18
Vc:\u005cwindows\u005cfonts\u005cjsmath-cmmi10.ttf
p932
sg20
g21
sbag1
(g8
g3
NtRp933
(dp934
g11
g12
sg13
S'Segoe Marker'
p935
sg15
I400
sg16
g12
sg17
g12
sg18
VC:\u005cWindows\u005cFonts\u005cSegoeMarker.ttf
p936
sg20
g21
sbag1
(g8
g3
NtRp937
(dp938
g11
g12
sg13
S'Segoe WP'
p939
sg15
I400
sg16
g12
sg17
g12
sg18
Vc:\u005cwindows\u005cfonts\u005csegoewp.ttf
p940
sg20
g21
sbag1
(g8
g3
NtRp941
(dp942
g11
g69
sg13
S'Book Antiqua'
p943
sg15
I700
sg16
g12
sg17
g12
sg18
VC:\u005cWindows\u005cFonts\u005cANTQUABI.TTF
p944
sg20
g21
sbag1
(g8
g3
NtRp945
(dp946
g11
g40
sg13
S'DejaVu Sans'
p947
sg15
I400
sg16
g12
sg17
g12
sg18
Vc:\u005cwindows\u005cfonts\u005cdejavusans-oblique.ttf
p948
sg20
g21
sbag1
(g8
g3
NtRp949
(dp950
g11
g12
sg13
S'STLiti'
p951
sg15
I400
sg16
g12
sg17
g12
sg18
VC:\u005cWindows\u005cFonts\u005cSTLITI.TTF
p952
sg20
g21
sbag1
(g8
g3
NtRp953
(dp954
g11
g69
sg13
S'Century Schoolbook'
p955
sg15
I700
sg16
g12
sg17
g12
sg18
VC:\u005cWindows\u005cFonts\u005cSCHLBKBI.TTF
p956
sg20
g21
sbag1
(g8
g3
NtRp957
(dp958
g11
g12
sg13
S'Bernard MT Condensed'
p959
sg15
I400
sg16
g267
sg17
g12
sg18
VC:\u005cWindows\u005cFonts\u005cBERNHC.TTF
p960
sg20
g21
sbag1
(g8
g3
NtRp961
(dp962
g11
g69
sg13
S'EucrosiaUPC'
p963
sg15
I700
sg16
g12
sg17
g12
sg18
VC:\u005cWindows\u005cFonts\u005cupcebi.ttf
p964
sg20
g21
sbag1
(g8
g3
NtRp965
(dp966
g11
g69
sg13
S'Bookman Old Style'
p967
sg15
I400
sg16
g12
sg17
g12
sg18
Vc:\u005cwindows\u005cfonts\u005cbookosi.ttf
p968
sg20
g21
sbag1
(g8
g3
NtRp969
(dp970
g11
g12
sg13
S'Lucida Fax'
p971
sg15
I700
sg16
g12
sg17
g12
sg18
VC:\u005cWindows\u005cFonts\u005cLFAXD.TTF
p972
sg20
g21
sbag1
(g8
g3
NtRp973
(dp974
g11
g12
sg13
S'Gloucester MT Extra Condensed'
p975
sg15
I400
sg16
g267
sg17
g12
sg18
Vc:\u005cwindows\u005cfonts\u005cglecb.ttf
p976
sg20
g21
sbag1
(g8
g3
NtRp977
(dp978
g11
g12
sg13
S'Chiller'
p979
sg15
I400
sg16
g12
sg17
g12
sg18
VC:\u005cWindows\u005cFonts\u005cCHILLER.TTF
p980
sg20
g21
sbag1
(g8
g3
NtRp981
(dp982
g11
g12
sg13
S'Source Code Pro'
p983
sg15
I900
sg16
g12
sg17
g12
sg18
Vc:\u005cwindows\u005cfonts\u005csourcecodepro-black.ttf
p984
sg20
g21
sbag1
(g8
g3
NtRp985
(dp986
g11
g12
sg13
S'Gill Sans Ultra Bold Condensed'
p987
sg15
I700
sg16
g267
sg17
g12
sg18
VC:\u005cWindows\u005cFonts\u005cGILLUBCD.TTF
p988
sg20
g21
sbag1
(g8
g3
NtRp989
(dp990
g11
g69
sg13
S'FreesiaUPC'
p991
sg15
I400
sg16
g12
sg17
g12
sg18
Vc:\u005cwindows\u005cfonts\u005cupcfi.ttf
p992
sg20
g21
sbag1
(g8
g3
NtRp993
(dp994
g11
g12
sg13
S'Franklin Gothic Medium'
p995
sg15
I500
sg16
g12
sg17
g12
sg18
VC:\u005cWindows\u005cFonts\u005cframd.ttf
p996
sg20
g21
sbag1
(g8
g3
NtRp997
(dp998
g11
g69
sg13
S'Lucida Sans'
p999
sg15
I400
sg16
g12
sg17
g12
sg18
VC:\u005cWindows\u005cFonts\u005cLSANSI.TTF
p1000
sg20
g21
sbag1
(g8
g3
NtRp1001
(dp1002
g11
g12
sg13
S'Microsoft Tai Le'
p1003
sg15
I400
sg16
g12
sg17
g12
sg18
Vc:\u005cwindows\u005cfonts\u005ctaile.ttf
p1004
sg20
g21
sbag1
(g8
g3
NtRp1005
(dp1006
g11
g69
sg13
S'KodchiangUPC'
p1007
sg15
I700
sg16
g12
sg17
g12
sg18
VC:\u005cWindows\u005cFonts\u005cupckbi.ttf
p1008
sg20
g21
sbag1
(g8
g3
NtRp1009
(dp1010
g11
g69
sg13
S'Consolas'
p1011
sg15
I400
sg16
g12
sg17
g12
sg18
VC:\u005cWindows\u005cFonts\u005cCONSOLAI.TTF
p1012
sg20
g21
sbag1
(g8
g3
NtRp1013
(dp1014
g11
g69
sg13
S'Source Sans Pro'
p1015
sg15
I700
sg16
g12
sg17
g12
sg18
Vc:\u005cwindows\u005cfonts\u005csourcesanspro-semiboldit.ttf
p1016
sg20
g21
sbag1
(g8
g3
NtRp1017
(dp1018
g11
g12
sg13
S'Calibri'
p1019
sg15
I400
sg16
g12
sg17
g12
sg18
Vc:\u005cwindows\u005cfonts\u005ccalibri.ttf
p1020
sg20
g21
sbag1
(g8
g3
NtRp1021
(dp1022
g11
g12
sg13
S'Felix Titling'
p1023
sg15
I400
sg16
g12
sg17
g12
sg18
VC:\u005cWindows\u005cFonts\u005cFELIXTI.TTF
p1024
sg20
g21
sbag1
(g8
g3
NtRp1025
(dp1026
g11
g12
sg13
S'Corbel'
p1027
sg15
I700
sg16
g12
sg17
g12
sg18
VC:\u005cWindows\u005cFonts\u005cCORBELB.TTF
p1028
sg20
g21
sbag1
(g8
g3
NtRp1029
(dp1030
g11
g69
sg13
S'Gentium Book Basic'
p1031
sg15
I400
sg16
g12
sg17
g12
sg18
Vc:\u005cwindows\u005cfonts\u005cgenbkbasi.ttf
p1032
sg20
g21
sbag1
(g8
g3
NtRp1033
(dp1034
g11
g12
sg13
S'LiSu'
p1035
sg15
I400
sg16
g12
sg17
g12
sg18
VC:\u005cWindows\u005cFonts\u005cSIMLI.TTF
p1036
sg20
g21
sbag1
(g8
g3
NtRp1037
(dp1038
g11
g12
sg13
S'Vladimir Script'
p1039
sg15
I400
sg16
g12
sg17
g12
sg18
VC:\u005cWindows\u005cFonts\u005cVLADIMIR.TTF
p1040
sg20
g21
sbag1
(g8
g3
NtRp1041
(dp1042
g11
g12
sg13
S'Impact'
p1043
sg15
I400
sg16
g12
sg17
g12
sg18
VC:\u005cWindows\u005cFonts\u005cimpact.ttf
p1044
sg20
g21
sbag1
(g8
g3
NtRp1045
(dp1046
g11
g12
sg13
S'Centaur'
p1047
sg15
I400
sg16
g12
sg17
g12
sg18
Vc:\u005cwindows\u005cfonts\u005ccentaur.ttf
p1048
sg20
g21
sbag1
(g8
g3
NtRp1049
(dp1050
g11
g12
sg13
S'IrisUPC'
p1051
sg15
I400
sg16
g12
sg17
g12
sg18
Vc:\u005cwindows\u005cfonts\u005cupcil.ttf
p1052
sg20
g21
sbag1
(g8
g3
NtRp1053
(dp1054
g11
g12
sg13
S'Broadway'
p1055
sg15
I400
sg16
g12
sg17
g12
sg18
VC:\u005cWindows\u005cFonts\u005cBROADW.TTF
p1056
sg20
g21
sbag1
(g8
g3
NtRp1057
(dp1058
g11
g12
sg13
S'STSong'
p1059
sg15
I400
sg16
g12
sg17
g12
sg18
Vc:\u005cwindows\u005cfonts\u005cstsong.ttf
p1060
sg20
g21
sbag1
(g8
g3
NtRp1061
(dp1062
g11
g12
sg13
S'Liberation Sans'
p1063
sg15
I400
sg16
g12
sg17
g12
sg18
Vc:\u005cwindows\u005cfonts\u005cliberationsans-regular.ttf
p1064
sg20
g21
sbag1
(g8
g3
NtRp1065
(dp1066
g11
g12
sg13
S'Gill Sans MT'
p1067
sg15
I700
sg16
g12
sg17
g12
sg18
VC:\u005cWindows\u005cFonts\u005cGILB____.TTF
p1068
sg20
g21
sbag1
(g8
g3
NtRp1069
(dp1070
g11
g12
sg13
S'OpenSymbol'
p1071
sg15
I400
sg16
g12
sg17
g12
sg18
VC:\u005cWindows\u005cFonts\u005copens___.ttf
p1072
sg20
g21
sbag1
(g8
g3
NtRp1073
(dp1074
g11
g69
sg13
S'Calisto MT'
p1075
sg15
I400
sg16
g12
sg17
g12
sg18
VC:\u005cWindows\u005cFonts\u005cCALISTI.TTF
p1076
sg20
g21
sbag1
(g8
g3
NtRp1077
(dp1078
g11
g12
sg13
S'Latha'
p1079
sg15
I400
sg16
g12
sg17
g12
sg18
Vc:\u005cwindows\u005cfonts\u005clatha.ttf
p1080
sg20
g21
sbag1
(g8
g3
NtRp1081
(dp1082
g11
g12
sg13
S'Perpetua'
p1083
sg15
I400
sg16
g12
sg17
g12
sg18
Vc:\u005cwindows\u005cfonts\u005cper_____.ttf
p1084
sg20
g21
sbag1
(g8
g3
NtRp1085
(dp1086
g11
g12
sg13
S'Mangal'
p1087
sg15
I700
sg16
g12
sg17
g12
sg18
VC:\u005cWindows\u005cFonts\u005cmangalb.ttf
p1088
sg20
g21
sbag1
(g8
g3
NtRp1089
(dp1090
g11
g12
sg13
S'Kartika'
p1091
sg15
I400
sg16
g12
sg17
g12
sg18
VC:\u005cWindows\u005cFonts\u005ckartika.ttf
p1092
sg20
g21
sbag1
(g8
g3
NtRp1093
(dp1094
g11
g12
sg13
S'Vani'
p1095
sg15
I400
sg16
g12
sg17
g12
sg18
Vc:\u005cwindows\u005cfonts\u005cvani.ttf
p1096
sg20
g21
sbag1
(g8
g3
NtRp1097
(dp1098
g11
g12
sg13
S'DejaVu Serif'
p1099
sg15
I400
sg16
g267
sg17
g12
sg18
Vc:\u005cwindows\u005cfonts\u005cdejavuserifcondensed.ttf
p1100
sg20
g21
sbag1
(g8
g3
NtRp1101
(dp1102
g11
g12
sg13
S'Arial Rounded MT Bold'
p1103
sg15
I700
sg16
g12
sg17
g12
sg18
Vc:\u005cwindows\u005cfonts\u005carlrdbd.ttf
p1104
sg20
g21
sbag1
(g8
g3
NtRp1105
(dp1106
g11
g12
sg13
S'DilleniaUPC'
p1107
sg15
I400
sg16
g12
sg17
g12
sg18
Vc:\u005cwindows\u005cfonts\u005cupcdl.ttf
p1108
sg20
g21
sbag1
(g8
g3
NtRp1109
(dp1110
g11
g12
sg13
S'Yahei Mono'
p1111
sg15
I400
sg16
g12
sg17
g12
sg18
VC:\u005cWindows\u005cFonts\u005cyahei_mono.ttf
p1112
sg20
g21
sbag1
(g8
g3
NtRp1113
(dp1114
g11
g69
sg13
S'Calisto MT'
p1115
sg15
I700
sg16
g12
sg17
g12
sg18
VC:\u005cWindows\u005cFonts\u005cCALISTBI.TTF
p1116
sg20
g21
sbag1
(g8
g3
NtRp1117
(dp1118
g11
g12
sg13
S'Bernard MT Condensed'
p1119
sg15
I400
sg16
g267
sg17
g12
sg18
Vc:\u005cwindows\u005cfonts\u005cbernhc.ttf
p1120
sg20
g21
sbag1
(g8
g3
NtRp1121
(dp1122
g11
g69
sg13
S'Gentium Basic'
p1123
sg15
I400
sg16
g12
sg17
g12
sg18
VC:\u005cWindows\u005cFonts\u005cGenBasI.ttf
p1124
sg20
g21
sbag1
(g8
g3
NtRp1125
(dp1126
g11
g12
sg13
S'Monotype Corsiva'
p1127
sg15
I400
sg16
g12
sg17
g12
sg18
VC:\u005cWindows\u005cFonts\u005cMTCORSVA.TTF
p1128
sg20
g21
sbag1
(g8
g3
NtRp1129
(dp1130
g11
g12
sg13
S'Lucida Sans Unicode'
p1131
sg15
I400
sg16
g12
sg17
g12
sg18
VC:\u005cWindows\u005cFonts\u005cl_10646.ttf
p1132
sg20
g21
sbag1
(g8
g3
NtRp1133
(dp1134
g11
g12
sg13
S'Castellar'
p1135
sg15
I400
sg16
g12
sg17
g12
sg18
Vc:\u005cwindows\u005cfonts\u005ccastelar.ttf
p1136
sg20
g21
sbag1
(g8
g3
NtRp1137
(dp1138
g11
g12
sg13
S'Magneto'
p1139
sg15
I700
sg16
g12
sg17
g12
sg18
Vc:\u005cwindows\u005cfonts\u005cmagnetob.ttf
p1140
sg20
g21
sbag1
(g8
g3
NtRp1141
(dp1142
g11
g12
sg13
S'Source Code Pro'
p1143
sg15
I900
sg16
g12
sg17
g12
sg18
VC:\u005cWindows\u005cFonts\u005cSourceCodePro-Black.ttf
p1144
sg20
g21
sbag1
(g8
g3
NtRp1145
(dp1146
g11
g69
sg13
S'Source Sans Pro'
p1147
sg15
I700
sg16
g12
sg17
g12
sg18
VC:\u005cWindows\u005cFonts\u005cSourceSansPro-BoldItalic.ttf
p1148
sg20
g21
sbag1
(g8
g3
NtRp1149
(dp1150
g11
g12
sg13
S'Script MT Bold'
p1151
sg15
I700
sg16
g12
sg17
g12
sg18
VC:\u005cWindows\u005cFonts\u005cSCRIPTBL.TTF
p1152
sg20
g21
sbag1
(g8
g3
NtRp1153
(dp1154
g11
g12
sg13
S'Berlin Sans FB Demi'
p1155
sg15
I700
sg16
g12
sg17
g12
sg18
VC:\u005cWindows\u005cFonts\u005cBRLNSDB.TTF
p1156
sg20
g21
sbag1
(g8
g3
NtRp1157
(dp1158
g11
g40
sg13
S'DejaVu Sans Mono'
p1159
sg15
I400
sg16
g12
sg17
g12
sg18
VC:\u005cWindows\u005cFonts\u005cDejaVuSansMono-Oblique.ttf
p1160
sg20
g21
sbag1
(g8
g3
NtRp1161
(dp1162
g11
g12
sg13
S'Arial Unicode MS'
p1163
sg15
I400
sg16
g12
sg17
g12
sg18
Vc:\u005cwindows\u005cfonts\u005carialuni.ttf
p1164
sg20
g21
sbag1
(g8
g3
NtRp1165
(dp1166
g11
g69
sg13
S'Aparajita'
p1167
sg15
I700
sg16
g12
sg17
g12
sg18
Vc:\u005cwindows\u005cfonts\u005caparajbi.ttf
p1168
sg20
g21
sbag1
(g8
g3
NtRp1169
(dp1170
g11
g12
sg13
S'Ebrima'
p1171
sg15
I700
sg16
g12
sg17
g12
sg18
Vc:\u005cwindows\u005cfonts\u005cebrimabd.ttf
p1172
sg20
g21
sbag1
(g8
g3
NtRp1173
(dp1174
g11
g12
sg13
S'Segoe Print'
p1175
sg15
I400
sg16
g12
sg17
g12
sg18
VC:\u005cWindows\u005cFonts\u005csegoepr.ttf
p1176
sg20
g21
sbag1
(g8
g3
NtRp1177
(dp1178
g11
g12
sg13
S'Microsoft Sans Serif'
p1179
sg15
I400
sg16
g12
sg17
g12
sg18
VC:\u005cWindows\u005cFonts\u005cmicross.ttf
p1180
sg20
g21
sbag1
(g8
g3
NtRp1181
(dp1182
g11
g12
sg13
S'Gill Sans Ultra Bold Condensed'
p1183
sg15
I700
sg16
g267
sg17
g12
sg18
Vc:\u005cwindows\u005cfonts\u005cgillubcd.ttf
p1184
sg20
g21
sbag1
(g8
g3
NtRp1185
(dp1186
g11
g12
sg13
S'Wingdings 3'
p1187
sg15
I400
sg16
g12
sg17
g12
sg18
VC:\u005cWindows\u005cFonts\u005cWINGDNG3.TTF
p1188
sg20
g21
sbag1
(g8
g3
NtRp1189
(dp1190
g11
g69
sg13
S'Kokila'
p1191
sg15
I700
sg16
g12
sg17
g12
sg18
VC:\u005cWindows\u005cFonts\u005ckokilabi.ttf
p1192
sg20
g21
sbag1
(g8
g3
NtRp1193
(dp1194
g11
g69
sg13
S'Gill Sans MT'
p1195
sg15
I700
sg16
g12
sg17
g12
sg18
VC:\u005cWindows\u005cFonts\u005cGILBI___.TTF
p1196
sg20
g21
sbag1
(g8
g3
NtRp1197
(dp1198
g11
g12
sg13
S'Palace Script MT'
p1199
sg15
I400
sg16
g12
sg17
g12
sg18
VC:\u005cWindows\u005cFonts\u005cPALSCRI.TTF
p1200
sg20
g21
sbag1
(g8
g3
NtRp1201
(dp1202
g11
g12
sg13
S'Segoe Print'
p1203
sg15
I700
sg16
g12
sg17
g12
sg18
VC:\u005cWindows\u005cFonts\u005csegoeprb.ttf
p1204
sg20
g21
sbag1
(g8
g3
NtRp1205
(dp1206
g11
g12
sg13
S'FreesiaUPC'
p1207
sg15
I400
sg16
g12
sg17
g12
sg18
VC:\u005cWindows\u005cFonts\u005cupcfl.ttf
p1208
sg20
g21
sbag1
(g8
g3
NtRp1209
(dp1210
g11
g69
sg13
S'Perpetua'
p1211
sg15
I400
sg16
g12
sg17
g12
sg18
Vc:\u005cwindows\u005cfonts\u005cperi____.ttf
p1212
sg20
g21
sbag1
(g8
g3
NtRp1213
(dp1214
g11
g12
sg13
S'Miriam Fixed'
p1215
sg15
I400
sg16
g12
sg17
g12
sg18
Vc:\u005cwindows\u005cfonts\u005cmriamc.ttf
p1216
sg20
g21
sbag1
(g8
g3
NtRp1217
(dp1218
g11
g69
sg13
S'IrisUPC'
p1219
sg15
I400
sg16
g12
sg17
g12
sg18
Vc:\u005cwindows\u005cfonts\u005cupcii.ttf
p1220
sg20
g21
sbag1
(g8
g3
NtRp1221
(dp1222
g11
g12
sg13
S'Copperplate Gothic Light'
p1223
sg15
I200
sg16
g12
sg17
g12
sg18
Vc:\u005cwindows\u005cfonts\u005ccoprgtl.ttf
p1224
sg20
g21
sbag1
(g8
g3
NtRp1225
(dp1226
g11
g69
sg13
S'Tw Cen MT'
p1227
sg15
I400
sg16
g12
sg17
g12
sg18
Vc:\u005cwindows\u005cfonts\u005ctcmi____.ttf
p1228
sg20
g21
sbag1
(g8
g3
NtRp1229
(dp1230
g11
g69
sg13
S'Cordia New'
p1231
sg15
I700
sg16
g12
sg17
g12
sg18
VC:\u005cWindows\u005cFonts\u005ccordiaz.ttf
p1232
sg20
g21
sbag1
(g8
g3
NtRp1233
(dp1234
g11
g12
sg13
S'Times New Roman'
p1235
sg15
I500
sg16
g12
sg17
g12
sg18
Vc:\u005cwindows\u005cfonts\u005ctimes.ttf
p1236
sg20
g21
sbag1
(g8
g3
NtRp1237
(dp1238
g11
g12
sg13
S'Wingdings 2'
p1239
sg15
I400
sg16
g12
sg17
g12
sg18
Vc:\u005cwindows\u005cfonts\u005cwingdng2.ttf
p1240
sg20
g21
sbag1
(g8
g3
NtRp1241
(dp1242
g11
g12
sg13
S'Consolas'
p1243
sg15
I700
sg16
g12
sg17
g12
sg18
Vc:\u005cwindows\u005cfonts\u005cconsolab.ttf
p1244
sg20
g21
sbag1
(g8
g3
NtRp1245
(dp1246
g11
g12
sg13
S'Gentium Basic'
p1247
sg15
I400
sg16
g12
sg17
g12
sg18
Vc:\u005cwindows\u005cfonts\u005cgenbasr.ttf
p1248
sg20
g21
sbag1
(g8
g3
NtRp1249
(dp1250
g11
g12
sg13
S'DejaVu Sans'
p1251
sg15
I400
sg16
g12
sg17
g12
sg18
Vc:\u005cwindows\u005cfonts\u005cdejavusans.ttf
p1252
sg20
g21
sbag1
(g8
g3
NtRp1253
(dp1254
g11
g12
sg13
S'Vijaya'
p1255
sg15
I700
sg16
g12
sg17
g12
sg18
Vc:\u005cwindows\u005cfonts\u005cvijayab.ttf
p1256
sg20
g21
sbag1
(g8
g3
NtRp1257
(dp1258
g11
g40
sg13
S'DejaVu Sans'
p1259
sg15
I400
sg16
g267
sg17
g12
sg18
VC:\u005cWindows\u005cFonts\u005cDejaVuSansCondensed-Oblique.ttf
p1260
sg20
g21
sbag1
(g8
g3
NtRp1261
(dp1262
g11
g69
sg13
S'Courier New'
p1263
sg15
I400
sg16
g12
sg17
g12
sg18
Vc:\u005cwindows\u005cfonts\u005ccouri.ttf
p1264
sg20
g21
sbag1
(g8
g3
NtRp1265
(dp1266
g11
g12
sg13
S'Shruti'
p1267
sg15
I700
sg16
g12
sg17
g12
sg18
VC:\u005cWindows\u005cFonts\u005cshrutib.ttf
p1268
sg20
g21
sbag1
(g8
g3
NtRp1269
(dp1270
g11
g12
sg13
S'STFangsong'
p1271
sg15
I400
sg16
g12
sg17
g12
sg18
Vc:\u005cwindows\u005cfonts\u005cstfangso.ttf
p1272
sg20
g21
sbag1
(g8
g3
NtRp1273
(dp1274
g11
g69
sg13
S'CordiaUPC'
p1275
sg15
I700
sg16
g12
sg17
g12
sg18
Vc:\u005cwindows\u005cfonts\u005ccordiauz.ttf
p1276
sg20
g21
sbag1
(g8
g3
NtRp1277
(dp1278
g11
g12
sg13
S'Leelawadee'
p1279
sg15
I400
sg16
g12
sg17
g12
sg18
Vc:\u005cwindows\u005cfonts\u005cleelawad.ttf
p1280
sg20
g21
sbag1
(g8
g3
NtRp1281
(dp1282
g11
g12
sg13
S'Arial'
p1283
sg15
I400
sg16
g12
sg17
g12
sg18
Vc:\u005cwindows\u005cfonts\u005carial.ttf
p1284
sg20
g21
sbag1
(g8
g3
NtRp1285
(dp1286
g11
g69
sg13
S'Bodoni MT'
p1287
sg15
I400
sg16
g12
sg17
g12
sg18
Vc:\u005cwindows\u005cfonts\u005cbod_i.ttf
p1288
sg20
g21
sbag1
(g8
g3
NtRp1289
(dp1290
g11
g12
sg13
S'Shonar Bangla'
p1291
sg15
I700
sg16
g12
sg17
g12
sg18
Vc:\u005cwindows\u005cfonts\u005cshonarb.ttf
p1292
sg20
g21
sbag1
(g8
g3
NtRp1293
(dp1294
g11
g12
sg13
S'Vani'
p1295
sg15
I400
sg16
g12
sg17
g12
sg18
VC:\u005cWindows\u005cFonts\u005cVani.ttf
p1296
sg20
g21
sbag1
(g8
g3
NtRp1297
(dp1298
g11
g12
sg13
S'Engravers MT'
p1299
sg15
I400
sg16
g12
sg17
g12
sg18
Vc:\u005cwindows\u005cfonts\u005cengr.ttf
p1300
sg20
g21
sbag1
(g8
g3
NtRp1301
(dp1302
g11
g69
sg13
S'Lucida Fax'
p1303
sg15
I700
sg16
g12
sg17
g12
sg18
VC:\u005cWindows\u005cFonts\u005cLFAXDI.TTF
p1304
sg20
g21
sbag1
(g8
g3
NtRp1305
(dp1306
g11
g12
sg13
S'Century Gothic'
p1307
sg15
I400
sg16
g12
sg17
g12
sg18
VC:\u005cWindows\u005cFonts\u005cGOTHIC.TTF
p1308
sg20
g21
sbag1
(g8
g3
NtRp1309
(dp1310
g11
g12
sg13
S'Bauhaus 93'
p1311
sg15
I400
sg16
g12
sg17
g12
sg18
VC:\u005cWindows\u005cFonts\u005cBAUHS93.TTF
p1312
sg20
g21
sbag1
(g8
g3
NtRp1313
(dp1314
g11
g12
sg13
S'Haettenschweiler'
p1315
sg15
I400
sg16
g12
sg17
g12
sg18
VC:\u005cWindows\u005cFonts\u005cHATTEN.TTF
p1316
sg20
g21
sbag1
(g8
g3
NtRp1317
(dp1318
g11
g12
sg13
S'FreeSans'
p1319
sg15
I700
sg16
g12
sg17
g12
sg18
VC:\u005cWindows\u005cFonts\u005cFreeSansBold.ttf
p1320
sg20
g21
sbag1
(g8
g3
NtRp1321
(dp1322
g11
g12
sg13
S'STSong'
p1323
sg15
I400
sg16
g12
sg17
g12
sg18
VC:\u005cWindows\u005cFonts\u005cSTSONG.TTF
p1324
sg20
g21
sbag1
(g8
g3
NtRp1325
(dp1326
g11
g69
sg13
S'Book Antiqua'
p1327
sg15
I400
sg16
g12
sg17
g12
sg18
Vc:\u005cwindows\u005cfonts\u005cantquai.ttf
p1328
sg20
g21
sbag1
(g8
g3
NtRp1329
(dp1330
g11
g12
sg13
S'MS Reference Sans Serif'
p1331
sg15
I400
sg16
g12
sg17
g12
sg18
Vc:\u005cwindows\u005cfonts\u005crefsan.ttf
p1332
sg20
g21
sbag1
(g8
g3
NtRp1333
(dp1334
g11
g12
sg13
S'Bookman Old Style'
p1335
sg15
I700
sg16
g12
sg17
g12
sg18
Vc:\u005cwindows\u005cfonts\u005cbookosb.ttf
p1336
sg20
g21
sbag1
(g8
g3
NtRp1337
(dp1338
g11
g12
sg13
S'BrowalliaUPC'
p1339
sg15
I700
sg16
g12
sg17
g12
sg18
Vc:\u005cwindows\u005cfonts\u005cbrowaub.ttf
p1340
sg20
g21
sbag1
(g8
g3
NtRp1341
(dp1342
g11
g12
sg13
S'MoolBoran'
p1343
sg15
I400
sg16
g12
sg17
g12
sg18
VC:\u005cWindows\u005cFonts\u005cmoolbor.ttf
p1344
sg20
g21
sbag1
(g8
g3
NtRp1345
(dp1346
g11
g12
sg13
S'SWMacro'
p1347
sg15
I700
sg16
g12
sg17
g12
sg18
Vc:\u005cwindows\u005cfonts\u005cswmacro.otf
p1348
sg20
g21
sbag1
(g8
g3
NtRp1349
(dp1350
g11
g69
sg13
S'DilleniaUPC'
p1351
sg15
I700
sg16
g12
sg17
g12
sg18
Vc:\u005cwindows\u005cfonts\u005cupcdbi.ttf
p1352
sg20
g21
sbag1
(g8
g3
NtRp1353
(dp1354
g11
g12
sg13
S'Felix Titling'
p1355
sg15
I400
sg16
g12
sg17
g12
sg18
Vc:\u005cwindows\u005cfonts\u005cfelixti.ttf
p1356
sg20
g21
sbag1
(g8
g3
NtRp1357
(dp1358
g11
g69
sg13
S'Constantia'
p1359
sg15
I700
sg16
g12
sg17
g12
sg18
VC:\u005cWindows\u005cFonts\u005cCONSTANZ.TTF
p1360
sg20
g21
sbag1
(g8
g3
NtRp1361
(dp1362
g11
g69
sg13
S'Kokila'
p1363
sg15
I400
sg16
g12
sg17
g12
sg18
VC:\u005cWindows\u005cFonts\u005ckokilai.ttf
p1364
sg20
g21
sbag1
(g8
g3
NtRp1365
(dp1366
g11
g69
sg13
S'Palatino Linotype'
p1367
sg15
I400
sg16
g12
sg17
g12
sg18
Vc:\u005cwindows\u005cfonts\u005cpalai.ttf
p1368
sg20
g21
sbag1
(g8
g3
NtRp1369
(dp1370
g11
g69
sg13
S'Franklin Gothic Heavy'
p1371
sg15
I800
sg16
g12
sg17
g12
sg18
Vc:\u005cwindows\u005cfonts\u005cfrahvit.ttf
p1372
sg20
g21
sbag1
(g8
g3
NtRp1373
(dp1374
g11
g12
sg13
S'Liberation Sans Narrow'
p1375
sg15
I400
sg16
g267
sg17
g12
sg18
VC:\u005cWindows\u005cFonts\u005cLiberationSansNarrow-Regular.ttf
p1376
sg20
g21
sbag1
(g8
g3
NtRp1377
(dp1378
g11
g12
sg13
S'Berlin Sans FB'
p1379
sg15
I400
sg16
g12
sg17
g12
sg18
VC:\u005cWindows\u005cFonts\u005cBRLNSR.TTF
p1380
sg20
g21
sbag1
(g8
g3
NtRp1381
(dp1382
g11
g12
sg13
S'Carlito'
p1383
sg15
I700
sg16
g12
sg17
g12
sg18
Vc:\u005cwindows\u005cfonts\u005ccarlito-bold.ttf
p1384
sg20
g21
sbag1
(g8
g3
NtRp1385
(dp1386
g11
g12
sg13
S'Kokila'
p1387
sg15
I400
sg16
g12
sg17
g12
sg18
VC:\u005cWindows\u005cFonts\u005ckokila.ttf
p1388
sg20
g21
sbag1
(g8
g3
NtRp1389
(dp1390
g11
g12
sg13
S'Calibri'
p1391
sg15
I700
sg16
g12
sg17
g12
sg18
Vc:\u005cwindows\u005cfonts\u005ccalibrib.ttf
p1392
sg20
g21
sbag1
(g8
g3
NtRp1393
(dp1394
g11
g12
sg13
S'Verdana'
p1395
sg15
I400
sg16
g12
sg17
g12
sg18
VC:\u005cWindows\u005cFonts\u005cverdana.ttf
p1396
sg20
g21
sbag1
(g8
g3
NtRp1397
(dp1398
g11
g12
sg13
S'JasmineUPC'
p1399
sg15
I700
sg16
g12
sg17
g12
sg18
Vc:\u005cwindows\u005cfonts\u005cupcjb.ttf
p1400
sg20
g21
sbag1
(g8
g3
NtRp1401
(dp1402
g11
g12
sg13
S'Open Sans'
p1403
sg15
I400
sg16
g12
sg17
g12
sg18
VC:\u005cWindows\u005cFonts\u005cOpenSans-Regular.ttf
p1404
sg20
g21
sbag1
(g8
g3
NtRp1405
(dp1406
g11
g12
sg13
S'Colonna MT'
p1407
sg15
I400
sg16
g12
sg17
g12
sg18
VC:\u005cWindows\u005cFonts\u005cCOLONNA.TTF
p1408
sg20
g21
sbag1
(g8
g3
NtRp1409
(dp1410
g11
g12
sg13
S'David'
p1411
sg15
I700
sg16
g12
sg17
g12
sg18
Vc:\u005cwindows\u005cfonts\u005cdavidbd.ttf
p1412
sg20
g21
sbag1
(g8
g3
NtRp1413
(dp1414
g11
g69
sg13
S'Source Sans Pro'
p1415
sg15
I200
sg16
g12
sg17
g12
sg18
Vc:\u005cwindows\u005cfonts\u005csourcesanspro-lightit.ttf
p1416
sg20
g21
sbag1
(g8
g3
NtRp1417
(dp1418
g11
g40
sg13
S'DejaVu Sans'
p1419
sg15
I700
sg16
g267
sg17
g12
sg18
Vc:\u005cwindows\u005cfonts\u005cdejavusanscondensed-boldoblique.ttf
p1420
sg20
g21
sbag1
(g8
g3
NtRp1421
(dp1422
g11
g12
sg13
S'Century Schoolbook'
p1423
sg15
I700
sg16
g12
sg17
g12
sg18
Vc:\u005cwindows\u005cfonts\u005cschlbkb.ttf
p1424
sg20
g21
sbag1
(g8
g3
NtRp1425
(dp1426
g11
g12
sg13
S'Yu Gothic'
p1427
sg15
I400
sg16
g12
sg17
g12
sg18
Vc:\u005cwindows\u005cfonts\u005cyugothic.ttf
p1428
sg20
g21
sbag1
(g8
g3
NtRp1429
(dp1430
g11
g12
sg13
S'Chiller'
p1431
sg15
I400
sg16
g12
sg17
g12
sg18
Vc:\u005cwindows\u005cfonts\u005cchiller.ttf
p1432
sg20
g21
sbag1
(g8
g3
NtRp1433
(dp1434
g11
g12
sg13
S'Book Antiqua'
p1435
sg15
I700
sg16
g12
sg17
g12
sg18
VC:\u005cWindows\u005cFonts\u005cANTQUAB.TTF
p1436
sg20
g21
sbag1
(g8
g3
NtRp1437
(dp1438
g11
g12
sg13
S'Constantia'
p1439
sg15
I400
sg16
g12
sg17
g12
sg18
Vc:\u005cwindows\u005cfonts\u005cconstan.ttf
p1440
sg20
g21
sbag1
(g8
g3
NtRp1441
(dp1442
g11
g69
sg13
S'Arial'
p1443
sg15
I400
sg16
g267
sg17
g12
sg18
VC:\u005cWindows\u005cFonts\u005cARIALNI.TTF
p1444
sg20
g21
sbag1
(g8
g3
NtRp1445
(dp1446
g11
g12
sg13
S'Simplified Arabic Fixed'
p1447
sg15
I400
sg16
g12
sg17
g12
sg18
Vc:\u005cwindows\u005cfonts\u005csimpfxo.ttf
p1448
sg20
g21
sbag1
(g8
g3
NtRp1449
(dp1450
g11
g12
sg13
S'Mangal'
p1451
sg15
I400
sg16
g12
sg17
g12
sg18
Vc:\u005cwindows\u005cfonts\u005cmangal.ttf
p1452
sg20
g21
sbag1
(g8
g3
NtRp1453
(dp1454
g11
g12
sg13
S'Trebuchet MS'
p1455
sg15
I400
sg16
g12
sg17
g12
sg18
Vc:\u005cwindows\u005cfonts\u005ctrebuc.ttf
p1456
sg20
g21
sbag1
(g8
g3
NtRp1457
(dp1458
g11
g12
sg13
S'SimHei'
p1459
sg15
I400
sg16
g12
sg17
g12
sg18
Vc:\u005cwindows\u005cfonts\u005csimhei.ttf
p1460
sg20
g21
sbag1
(g8
g3
NtRp1461
(dp1462
g11
g12
sg13
S'Matura MT Script Capitals'
p1463
sg15
I400
sg16
g12
sg17
g12
sg18
VC:\u005cWindows\u005cFonts\u005cMATURASC.TTF
p1464
sg20
g21
sbag1
(g8
g3
NtRp1465
(dp1466
g11
g12
sg13
S'Gill Sans MT'
p1467
sg15
I400
sg16
g12
sg17
g12
sg18
Vc:\u005cwindows\u005cfonts\u005cgil_____.ttf
p1468
sg20
g21
sbag1
(g8
g3
NtRp1469
(dp1470
g11
g12
sg13
S'Lao UI'
p1471
sg15
I400
sg16
g12
sg17
g12
sg18
Vc:\u005cwindows\u005cfonts\u005claoui.ttf
p1472
sg20
g21
sbag1
(g8
g3
NtRp1473
(dp1474
g11
g12
sg13
S'STHupo'
p1475
sg15
I400
sg16
g12
sg17
g12
sg18
Vc:\u005cwindows\u005cfonts\u005csthupo.ttf
p1476
sg20
g21
sbag1
(g8
g3
NtRp1477
(dp1478
g11
g12
sg13
S'SamsungImagination'
p1479
sg15
I400
sg16
g12
sg17
g12
sg18
Vc:\u005cwindows\u005cfonts\u005csamsungimagination.otf
p1480
sg20
g21
sbag1
(g8
g3
NtRp1481
(dp1482
g11
g12
sg13
S'Lucida Console'
p1483
sg15
I400
sg16
g12
sg17
g12
sg18
Vc:\u005cwindows\u005cfonts\u005clucon.ttf
p1484
sg20
g21
sbag1
(g8
g3
NtRp1485
(dp1486
g11
g69
sg13
S'Brush Script MT'
p1487
sg15
I400
sg16
g12
sg17
g12
sg18
VC:\u005cWindows\u005cFonts\u005cBRUSHSCI.TTF
p1488
sg20
g21
sbag1
(g8
g3
NtRp1489
(dp1490
g11
g69
sg13
S'Liberation Mono'
p1491
sg15
I700
sg16
g12
sg17
g12
sg18
VC:\u005cWindows\u005cFonts\u005cLiberationMono-BoldItalic.ttf
p1492
sg20
g21
sbag1
(g8
g3
NtRp1493
(dp1494
g11
g69
sg13
S'BrowalliaUPC'
p1495
sg15
I400
sg16
g12
sg17
g12
sg18
VC:\u005cWindows\u005cFonts\u005cbrowaui.ttf
p1496
sg20
g21
sbag1
(g8
g3
NtRp1497
(dp1498
g11
g12
sg13
S'DaunPenh'
p1499
sg15
I400
sg16
g12
sg17
g12
sg18
Vc:\u005cwindows\u005cfonts\u005cdaunpenh.ttf
p1500
sg20
g21
sbag1
(g8
g3
NtRp1501
(dp1502
g11
g12
sg13
S'Californian FB'
p1503
sg15
I400
sg16
g12
sg17
g12
sg18
Vc:\u005cwindows\u005cfonts\u005ccalifr.ttf
p1504
sg20
g21
sbag1
(g8
g3
NtRp1505
(dp1506
g11
g12
sg13
S'Calisto MT'
p1507
sg15
I400
sg16
g12
sg17
g12
sg18
VC:\u005cWindows\u005cFonts\u005cCALIST.TTF
p1508
sg20
g21
sbag1
(g8
g3
NtRp1509
(dp1510
g11
g12
sg13
S'Traditional Arabic'
p1511
sg15
I700
sg16
g12
sg17
g12
sg18
Vc:\u005cwindows\u005cfonts\u005ctradbdo.ttf
p1512
sg20
g21
sbag1
(g8
g3
NtRp1513
(dp1514
g11
g12
sg13
S'Source Sans Pro'
p1515
sg15
I700
sg16
g12
sg17
g12
sg18
Vc:\u005cwindows\u005cfonts\u005csourcesanspro-semibold.ttf
p1516
sg20
g21
sbag1
(g8
g3
NtRp1517
(dp1518
g11
g12
sg13
S'Century Schoolbook'
p1519
sg15
I400
sg16
g12
sg17
g12
sg18
Vc:\u005cwindows\u005cfonts\u005ccenscbk.ttf
p1520
sg20
g21
sbag1
(g8
g3
NtRp1521
(dp1522
g11
g69
sg13
S'Century Gothic'
p1523
sg15
I700
sg16
g12
sg17
g12
sg18
VC:\u005cWindows\u005cFonts\u005cGOTHICBI.TTF
p1524
sg20
g21
sbag1
(g8
g3
NtRp1525
(dp1526
g11
g69
sg13
S'Candara'
p1527
sg15
I700
sg16
g12
sg17
g12
sg18
VC:\u005cWindows\u005cFonts\u005cCANDARAZ.TTF
p1528
sg20
g21
sbag1
(g8
g3
NtRp1529
(dp1530
g11
g12
sg13
S'Onyx'
p1531
sg15
I400
sg16
g12
sg17
g12
sg18
VC:\u005cWindows\u005cFonts\u005cONYX.TTF
p1532
sg20
g21
sbag1
(g8
g3
NtRp1533
(dp1534
g11
g12
sg13
S'Gloucester MT Extra Condensed'
p1535
sg15
I400
sg16
g267
sg17
g12
sg18
VC:\u005cWindows\u005cFonts\u005cGLECB.TTF
p1536
sg20
g21
sbag1
(g8
g3
NtRp1537
(dp1538
g11
g69
sg13
S'Liberation Serif'
p1539
sg15
I400
sg16
g12
sg17
g12
sg18
VC:\u005cWindows\u005cFonts\u005cLiberationSerif-Italic.ttf
p1540
sg20
g21
sbag1
(g8
g3
NtRp1541
(dp1542
g11
g12
sg13
S'Gautami'
p1543
sg15
I400
sg16
g12
sg17
g12
sg18
VC:\u005cWindows\u005cFonts\u005cgautami.ttf
p1544
sg20
g21
sbag1
(g8
g3
NtRp1545
(dp1546
g11
g12
sg13
S'Niagara Solid'
p1547
sg15
I400
sg16
g12
sg17
g12
sg18
VC:\u005cWindows\u005cFonts\u005cNIAGSOL.TTF
p1548
sg20
g21
sbag1
(g8
g3
NtRp1549
(dp1550
g11
g12
sg13
S'Carlito'
p1551
sg15
I700
sg16
g12
sg17
g12
sg18
VC:\u005cWindows\u005cFonts\u005cCarlito-Bold.ttf
p1552
sg20
g21
sbag1
(g8
g3
NtRp1553
(dp1554
g11
g12
sg13
S'Liberation Sans'
p1555
sg15
I400
sg16
g12
sg17
g12
sg18
VC:\u005cWindows\u005cFonts\u005cLiberationSans-Regular.ttf
p1556
sg20
g21
sbag1
(g8
g3
NtRp1557
(dp1558
g11
g12
sg13
S'Microsoft Yi Baiti'
p1559
sg15
I400
sg16
g12
sg17
g12
sg18
VC:\u005cWindows\u005cFonts\u005cmsyi.ttf
p1560
sg20
g21
sbag1
(g8
g3
NtRp1561
(dp1562
g11
g69
sg13
S'DejaVu Serif'
p1563
sg15
I400
sg16
g267
sg17
g12
sg18
Vc:\u005cwindows\u005cfonts\u005cdejavuserifcondensed-italic.ttf
p1564
sg20
g21
sbag1
(g8
g3
NtRp1565
(dp1566
g11
g12
sg13
S'Levenim MT'
p1567
sg15
I400
sg16
g12
sg17
g12
sg18
VC:\u005cWindows\u005cFonts\u005clvnm.ttf
p1568
sg20
g21
sbag1
(g8
g3
NtRp1569
(dp1570
g11
g12
sg13
S'Bookman Old Style'
p1571
sg15
I700
sg16
g12
sg17
g12
sg18
VC:\u005cWindows\u005cFonts\u005cBOOKOSB.TTF
p1572
sg20
g21
sbag1
(g8
g3
NtRp1573
(dp1574
g11
g12
sg13
S'DilleniaUPC'
p1575
sg15
I700
sg16
g12
sg17
g12
sg18
Vc:\u005cwindows\u005cfonts\u005cupcdb.ttf
p1576
sg20
g21
sbag1
(g8
g3
NtRp1577
(dp1578
g11
g69
sg13
S'PT Serif'
p1579
sg15
I400
sg16
g12
sg17
g12
sg18
VC:\u005cWindows\u005cFonts\u005cPT_Serif-Web-Italic.ttf
p1580
sg20
g21
sbag1
(g8
g3
NtRp1581
(dp1582
g11
g12
sg13
S'DejaVu Serif'
p1583
sg15
I700
sg16
g267
sg17
g12
sg18
VC:\u005cWindows\u005cFonts\u005cDejaVuSerifCondensed-Bold.ttf
p1584
sg20
g21
sbag1
(g8
g3
NtRp1585
(dp1586
g11
g69
sg13
S'Tw Cen MT'
p1587
sg15
I700
sg16
g12
sg17
g12
sg18
Vc:\u005cwindows\u005cfonts\u005ctcbi____.ttf
p1588
sg20
g21
sbag1
(g8
g3
NtRp1589
(dp1590
g11
g12
sg13
S'Liberation Mono'
p1591
sg15
I700
sg16
g12
sg17
g12
sg18
VC:\u005cWindows\u005cFonts\u005cLiberationMono-Bold.ttf
p1592
sg20
g21
sbag1
(g8
g3
NtRp1593
(dp1594
g11
g12
sg13
S'Verdana'
p1595
sg15
I700
sg16
g12
sg17
g12
sg18
Vc:\u005cwindows\u005cfonts\u005cverdanab.ttf
p1596
sg20
g21
sbag1
(g8
g3
NtRp1597
(dp1598
g11
g12
sg13
S'Comic Sans MS'
p1599
sg15
I400
sg16
g12
sg17
g12
sg18
VC:\u005cWindows\u005cFonts\u005ccomic.ttf
p1600
sg20
g21
sbag1
(g8
g3
NtRp1601
(dp1602
g11
g69
sg13
S'Liberation Serif'
p1603
sg15
I700
sg16
g12
sg17
g12
sg18
VC:\u005cWindows\u005cFonts\u005cLiberationSerif-BoldItalic.ttf
p1604
sg20
g21
sbag1
(g8
g3
NtRp1605
(dp1606
g11
g69
sg13
S'Courier New'
p1607
sg15
I700
sg16
g12
sg17
g12
sg18
Vc:\u005cwindows\u005cfonts\u005ccourbi.ttf
p1608
sg20
g21
sbag1
(g8
g3
NtRp1609
(dp1610
g11
g69
sg13
S'jsMath-cmti10'
p1611
sg15
I400
sg16
g12
sg17
g12
sg18
VC:\u005cWindows\u005cFonts\u005cjsMath-cmti10.ttf
p1612
sg20
g21
sbag1
(g8
g3
NtRp1613
(dp1614
g11
g12
sg13
S'Gentium Book Basic'
p1615
sg15
I400
sg16
g12
sg17
g12
sg18
VC:\u005cWindows\u005cFonts\u005cGenBkBasR.ttf
p1616
sg20
g21
sbag1
(g8
g3
NtRp1617
(dp1618
g11
g12
sg13
S'Microsoft PhagsPa'
p1619
sg15
I400
sg16
g12
sg17
g12
sg18
Vc:\u005cwindows\u005cfonts\u005cphagspa.ttf
p1620
sg20
g21
sbag1
(g8
g3
NtRp1621
(dp1622
g11
g12
sg13
S'Wingdings 3'
p1623
sg15
I400
sg16
g12
sg17
g12
sg18
Vc:\u005cwindows\u005cfonts\u005cwingdng3.ttf
p1624
sg20
g21
sbag1
(g8
g3
NtRp1625
(dp1626
g11
g69
sg13
S'DejaVu Serif'
p1627
sg15
I700
sg16
g267
sg17
g12
sg18
VC:\u005cWindows\u005cFonts\u005cDejaVuSerifCondensed-BoldItalic.ttf
p1628
sg20
g21
sbag1
(g8
g3
NtRp1629
(dp1630
g11
g12
sg13
S'STHupo'
p1631
sg15
I400
sg16
g12
sg17
g12
sg18
VC:\u005cWindows\u005cFonts\u005cSTHUPO.TTF
p1632
sg20
g21
sbag1
(g8
g3
NtRp1633
(dp1634
g11
g12
sg13
S'IrisUPC'
p1635
sg15
I700
sg16
g12
sg17
g12
sg18
VC:\u005cWindows\u005cFonts\u005cupcib.ttf
p1636
sg20
g21
sbag1
(g8
g3
NtRp1637
(dp1638
g11
g12
sg13
S'Calisto MT'
p1639
sg15
I700
sg16
g12
sg17
g12
sg18
Vc:\u005cwindows\u005cfonts\u005ccalistb.ttf
p1640
sg20
g21
sbag1
(g8
g3
NtRp1641
(dp1642
g11
g12
sg13
S'Juice ITC'
p1643
sg15
I400
sg16
g12
sg17
g12
sg18
VC:\u005cWindows\u005cFonts\u005cJUICE___.TTF
p1644
sg20
g21
sbag1
(g8
g3
NtRp1645
(dp1646
g11
g12
sg13
S'Microsoft New Tai Lue'
p1647
sg15
I700
sg16
g12
sg17
g12
sg18
VC:\u005cWindows\u005cFonts\u005cntailub.ttf
p1648
sg20
g21
sbag1
(g8
g3
NtRp1649
(dp1650
g11
g69
sg13
S'Open Sans'
p1651
sg15
I400
sg16
g12
sg17
g12
sg18
VC:\u005cWindows\u005cFonts\u005cOpenSans-Italic.ttf
p1652
sg20
g21
sbag1
(g8
g3
NtRp1653
(dp1654
g11
g12
sg13
S'Shruti'
p1655
sg15
I400
sg16
g12
sg17
g12
sg18
VC:\u005cWindows\u005cFonts\u005cshruti.ttf
p1656
sg20
g21
sbag1
(g8
g3
NtRp1657
(dp1658
g11
g69
sg13
S'Linux Libertine G'
p1659
sg15
I400
sg16
g12
sg17
g12
sg18
Vc:\u005cwindows\u005cfonts\u005clinlibertine_ri_g.ttf
p1660
sg20
g21
sbag1
(g8
g3
NtRp1661
(dp1662
g11
g12
sg13
S'Angsana New'
p1663
sg15
I400
sg16
g12
sg17
g12
sg18
VC:\u005cWindows\u005cFonts\u005cangsa.ttf
p1664
sg20
g21
sbag1
(g8
g3
NtRp1665
(dp1666
g11
g12
sg13
S'Bradley Hand ITC'
p1667
sg15
I400
sg16
g12
sg17
g12
sg18
VC:\u005cWindows\u005cFonts\u005cBRADHITC.TTF
p1668
sg20
g21
sbag1
(g8
g3
NtRp1669
(dp1670
g11
g12
sg13
S'Viner Hand ITC'
p1671
sg15
I400
sg16
g12
sg17
g12
sg18
Vc:\u005cwindows\u005cfonts\u005cvineritc.ttf
p1672
sg20
g21
sbag1
(g8
g3
NtRp1673
(dp1674
g11
g12
sg13
S'Jokerman'
p1675
sg15
I400
sg16
g12
sg17
g12
sg18
Vc:\u005cwindows\u005cfonts\u005cjokerman.ttf
p1676
sg20
g21
sbag1
(g8
g3
NtRp1677
(dp1678
g11
g69
sg13
S'Corbel'
p1679
sg15
I700
sg16
g12
sg17
g12
sg18
VC:\u005cWindows\u005cFonts\u005cCORBELZ.TTF
p1680
sg20
g21
sbag1
(g8
g3
NtRp1681
(dp1682
g11
g12
sg13
S'Segoe UI'
p1683
sg15
I700
sg16
g12
sg17
g12
sg18
VC:\u005cWindows\u005cFonts\u005csegoeuib.ttf
p1684
sg20
g21
sbag1
(g8
g3
NtRp1685
(dp1686
g11
g12
sg13
S'Ebrima'
p1687
sg15
I400
sg16
g12
sg17
g12
sg18
VC:\u005cWindows\u005cFonts\u005cebrima.ttf
p1688
sg20
g21
sbag1
(g8
g3
NtRp1689
(dp1690
g11
g12
sg13
S'Blackadder ITC'
p1691
sg15
I900
sg16
g12
sg17
g12
sg18
Vc:\u005cwindows\u005cfonts\u005citcblkad.ttf
p1692
sg20
g21
sbag1
(g8
g3
NtRp1693
(dp1694
g11
g69
sg13
S'Bodoni MT'
p1695
sg15
I700
sg16
g267
sg17
g12
sg18
VC:\u005cWindows\u005cFonts\u005cBOD_CBI.TTF
p1696
sg20
g21
sbag1
(g8
g3
NtRp1697
(dp1698
g11
g12
sg13
S'Baskerville Old Face'
p1699
sg15
I400
sg16
g12
sg17
g12
sg18
Vc:\u005cwindows\u005cfonts\u005cbaskvill.ttf
p1700
sg20
g21
sbag1
(g8
g3
NtRp1701
(dp1702
g11
g69
sg13
S'Linux Libertine G'
p1703
sg15
I700
sg16
g12
sg17
g12
sg18
Vc:\u005cwindows\u005cfonts\u005clinlibertine_rzi_g.ttf
p1704
sg20
g21
sbag1
(g8
g3
NtRp1705
(dp1706
g11
g12
sg13
S'Aparajita'
p1707
sg15
I700
sg16
g12
sg17
g12
sg18
VC:\u005cWindows\u005cFonts\u005caparajb.ttf
p1708
sg20
g21
sbag1
(g8
g3
NtRp1709
(dp1710
g11
g69
sg13
S'Rockwell'
p1711
sg15
I400
sg16
g12
sg17
g12
sg18
Vc:\u005cwindows\u005cfonts\u005crocki.ttf
p1712
sg20
g21
sbag1
(g8
g3
NtRp1713
(dp1714
g11
g69
sg13
S'Book Antiqua'
p1715
sg15
I400
sg16
g12
sg17
g12
sg18
VC:\u005cWindows\u005cFonts\u005cANTQUAI.TTF
p1716
sg20
g21
sbag1
(g8
g3
NtRp1717
(dp1718
g11
g12
sg13
S'Book Antiqua'
p1719
sg15
I400
sg16
g12
sg17
g12
sg18
Vc:\u005cwindows\u005cfonts\u005cbkant.ttf
p1720
sg20
g21
sbag1
(g8
g3
NtRp1721
(dp1722
g11
g12
sg13
S'Malgun Gothic'
p1723
sg15
I400
sg16
g12
sg17
g12
sg18
VC:\u005cWindows\u005cFonts\u005cmalgun.ttf
p1724
sg20
g21
sbag1
(g8
g3
NtRp1725
(dp1726
g11
g69
sg13
S'Bodoni MT'
p1727
sg15
I400
sg16
g12
sg17
g12
sg18
VC:\u005cWindows\u005cFonts\u005cBOD_I.TTF
p1728
sg20
g21
sbag1
(g8
g3
NtRp1729
(dp1730
g11
g69
sg13
S'Liberation Sans'
p1731
sg15
I700
sg16
g12
sg17
g12
sg18
Vc:\u005cwindows\u005cfonts\u005cliberationsans-bolditalic.ttf
p1732
sg20
g21
sbag1
(g8
g3
NtRp1733
(dp1734
g11
g12
sg13
S'AngsanaUPC'
p1735
sg15
I400
sg16
g12
sg17
g12
sg18
VC:\u005cWindows\u005cFonts\u005cangsau.ttf
p1736
sg20
g21
sbag1
(g8
g3
NtRp1737
(dp1738
g11
g12
sg13
S'Garamond'
p1739
sg15
I700
sg16
g12
sg17
g12
sg18
Vc:\u005cwindows\u005cfonts\u005cgarabd.ttf
p1740
sg20
g21
sbag1
(g8
g3
NtRp1741
(dp1742
g11
g69
sg13
S'Linux Libertine G'
p1743
sg15
I700
sg16
g12
sg17
g12
sg18
Vc:\u005cwindows\u005cfonts\u005clinlibertine_rbi_g.ttf
p1744
sg20
g21
sbag1
(g8
g3
NtRp1745
(dp1746
g11
g12
sg13
S'Microsoft Uighur'
p1747
sg15
I400
sg16
g12
sg17
g12
sg18
VC:\u005cWindows\u005cFonts\u005cmsuighur.ttf
p1748
sg20
g21
sbag1
(g8
g3
NtRp1749
(dp1750
g11
g12
sg13
S'Linux Biolinum G'
p1751
sg15
I700
sg16
g12
sg17
g12
sg18
Vc:\u005cwindows\u005cfonts\u005clinbiolinum_rb_g.ttf
p1752
sg20
g21
sbag1
(g8
g3
NtRp1753
(dp1754
g11
g12
sg13
S'Courier New'
p1755
sg15
I700
sg16
g12
sg17
g12
sg18
VC:\u005cWindows\u005cFonts\u005ccourbd.ttf
p1756
sg20
g21
sbag1
(g8
g3
NtRp1757
(dp1758
g11
g12
sg13
S'SWGamekeys MT'
p1759
sg15
I400
sg16
g12
sg17
g12
sg18
VC:\u005cWindows\u005cFonts\u005cSwkeys1.ttf
p1760
sg20
g21
sbag1
(g8
g3
NtRp1761
(dp1762
g11
g12
sg13
S'Snap ITC'
p1763
sg15
I400
sg16
g12
sg17
g12
sg18
VC:\u005cWindows\u005cFonts\u005cSNAP____.TTF
p1764
sg20
g21
sbag1
(g8
g3
NtRp1765
(dp1766
g11
g12
sg13
S'Gisha'
p1767
sg15
I400
sg16
g12
sg17
g12
sg18
Vc:\u005cwindows\u005cfonts\u005cgisha.ttf
p1768
sg20
g21
sbag1
(g8
g3
NtRp1769
(dp1770
g11
g40
sg13
S'DejaVu Sans Mono'
p1771
sg15
I700
sg16
g12
sg17
g12
sg18
Vc:\u005cwindows\u005cfonts\u005cdejavusansmono-boldoblique.ttf
p1772
sg20
g21
sbag1
(g8
g3
NtRp1773
(dp1774
g11
g12
sg13
S'Calisto MT'
p1775
sg15
I400
sg16
g12
sg17
g12
sg18
Vc:\u005cwindows\u005cfonts\u005ccalist.ttf
p1776
sg20
g21
sbag1
(g8
g3
NtRp1777
(dp1778
g11
g12
sg13
S'Curlz MT'
p1779
sg15
I400
sg16
g12
sg17
g12
sg18
Vc:\u005cwindows\u005cfonts\u005ccurlz___.ttf
p1780
sg20
g21
sbag1
(g8
g3
NtRp1781
(dp1782
g11
g69
sg13
S'Arial'
p1783
sg15
I700
sg16
g12
sg17
g12
sg18
Vc:\u005cwindows\u005cfonts\u005carialbi.ttf
p1784
sg20
g21
sbag1
(g8
g3
NtRp1785
(dp1786
g11
g69
sg13
S'Trebuchet MS'
p1787
sg15
I400
sg16
g12
sg17
g12
sg18
Vc:\u005cwindows\u005cfonts\u005ctrebucit.ttf
p1788
sg20
g21
sbag1
(g8
g3
NtRp1789
(dp1790
g11
g69
sg13
S'Bookman Old Style'
p1791
sg15
I400
sg16
g12
sg17
g12
sg18
VC:\u005cWindows\u005cFonts\u005cBOOKOSI.TTF
p1792
sg20
g21
sbag1
(g8
g3
NtRp1793
(dp1794
g11
g12
sg13
S'Britannic Bold'
p1795
sg15
I700
sg16
g12
sg17
g12
sg18
Vc:\u005cwindows\u005cfonts\u005cbritanic.ttf
p1796
sg20
g21
sbag1
(g8
g3
NtRp1797
(dp1798
g11
g12
sg13
S'Rockwell'
p1799
sg15
I700
sg16
g12
sg17
g12
sg18
VC:\u005cWindows\u005cFonts\u005cROCKB.TTF
p1800
sg20
g21
sbag1
(g8
g3
NtRp1801
(dp1802
g11
g12
sg13
S'Linux Libertine G'
p1803
sg15
I700
sg16
g12
sg17
g12
sg18
Vc:\u005cwindows\u005cfonts\u005clinlibertine_rb_g.ttf
p1804
sg20
g21
sbag1
(g8
g3
NtRp1805
(dp1806
g11
g12
sg13
S'Perpetua Titling MT'
p1807
sg15
I200
sg16
g12
sg17
g12
sg18
Vc:\u005cwindows\u005cfonts\u005cpertili.ttf
p1808
sg20
g21
sbag1
(g8
g3
NtRp1809
(dp1810
g11
g12
sg13
S'Californian FB'
p1811
sg15
I700
sg16
g12
sg17
g12
sg18
VC:\u005cWindows\u005cFonts\u005cCALIFB.TTF
p1812
sg20
g21
sbag1
(g8
g3
NtRp1813
(dp1814
g11
g12
sg13
S'SimSun-ExtB'
p1815
sg15
I400
sg16
g12
sg17
g12
sg18
Vc:\u005cwindows\u005cfonts\u005csimsunb.ttf
p1816
sg20
g21
sbag1
(g8
g3
NtRp1817
(dp1818
g11
g69
sg13
S'Liberation Serif'
p1819
sg15
I400
sg16
g12
sg17
g12
sg18
Vc:\u005cwindows\u005cfonts\u005cliberationserif-italic.ttf
p1820
sg20
g21
sbag1
(g8
g3
NtRp1821
(dp1822
g11
g12
sg13
S'Liberation Sans'
p1823
sg15
I700
sg16
g12
sg17
g12
sg18
Vc:\u005cwindows\u005cfonts\u005cliberationsans-bold.ttf
p1824
sg20
g21
sbag1
(g8
g3
NtRp1825
(dp1826
g11
g12
sg13
S'Linux Libertine G'
p1827
sg15
I700
sg16
g12
sg17
g12
sg18
VC:\u005cWindows\u005cFonts\u005cLinLibertine_RB_G.ttf
p1828
sg20
g21
sbag1
(g8
g3
NtRp1829
(dp1830
g11
g12
sg13
S'MS Reference Sans Serif'
p1831
sg15
I400
sg16
g12
sg17
g12
sg18
VC:\u005cWindows\u005cFonts\u005cREFSAN.TTF
p1832
sg20
g21
sbag1
(g8
g3
NtRp1833
(dp1834
g11
g12
sg13
S'PT Serif'
p1835
sg15
I700
sg16
g12
sg17
g12
sg18
VC:\u005cWindows\u005cFonts\u005cPT_Serif-Web-Bold.ttf
p1836
sg20
g21
sbag1
(g8
g3
NtRp1837
(dp1838
g11
g12
sg13
S'Bauhaus 93'
p1839
sg15
I400
sg16
g12
sg17
g12
sg18
Vc:\u005cwindows\u005cfonts\u005cbauhs93.ttf
p1840
sg20
g21
sbag1
(g8
g3
NtRp1841
(dp1842
g11
g69
sg13
S'Lucida Calligraphy'
p1843
sg15
I400
sg16
g12
sg17
g12
sg18
Vc:\u005cwindows\u005cfonts\u005clcallig.ttf
p1844
sg20
g21
sbag1
(g8
g3
NtRp1845
(dp1846
g11
g40
sg13
S'Lucida Sans Typewriter'
p1847
sg15
I700
sg16
g12
sg17
g12
sg18
VC:\u005cWindows\u005cFonts\u005cLTYPEBO.TTF
p1848
sg20
g21
sbag1
(g8
g3
NtRp1849
(dp1850
g11
g69
sg13
S'Source Sans Pro'
p1851
sg15
I200
sg16
g12
sg17
g12
sg18
Vc:\u005cwindows\u005cfonts\u005csourcesanspro-extralightit.ttf
p1852
sg20
g21
sbag1
(g8
g3
NtRp1853
(dp1854
g11
g12
sg13
S'Colonna MT'
p1855
sg15
I400
sg16
g12
sg17
g12
sg18
Vc:\u005cwindows\u005cfonts\u005ccolonna.ttf
p1856
sg20
g21
sbag1
(g8
g3
NtRp1857
(dp1858
g11
g12
sg13
S'Microsoft MHei'
p1859
sg15
I400
sg16
g12
sg17
g12
sg18
VC:\u005cWindows\u005cFonts\u005cMSMHei.ttf
p1860
sg20
g21
sbag1
(g8
g3
NtRp1861
(dp1862
g11
g69
sg13
S'Times New Roman'
p1863
sg15
I700
sg16
g12
sg17
g12
sg18
Vc:\u005cwindows\u005cfonts\u005ctimesbi.ttf
p1864
sg20
g21
sbag1
(g8
g3
NtRp1865
(dp1866
g11
g69
sg13
S'Liberation Sans'
p1867
sg15
I700
sg16
g12
sg17
g12
sg18
VC:\u005cWindows\u005cFonts\u005cLiberationSans-BoldItalic.ttf
p1868
sg20
g21
sbag1
(g8
g3
NtRp1869
(dp1870
g11
g12
sg13
S'Comic Sans MS'
p1871
sg15
I700
sg16
g12
sg17
g12
sg18
Vc:\u005cwindows\u005cfonts\u005ccomicbd.ttf
p1872
sg20
g21
sbag1
(g8
g3
NtRp1873
(dp1874
g11
g12
sg13
S'jsMath-cmbx10'
p1875
sg15
I700
sg16
g12
sg17
g12
sg18
Vc:\u005cwindows\u005cfonts\u005cjsmath-cmbx10.ttf
p1876
sg20
g21
sbag1
(g8
g3
NtRp1877
(dp1878
g11
g12
sg13
S'Modern No. 20'
p1879
sg15
I400
sg16
g12
sg17
g12
sg18
VC:\u005cWindows\u005cFonts\u005cMOD20.TTF
p1880
sg20
g21
sbag1
(g8
g3
NtRp1881
(dp1882
g11
g69
sg13
S'Candara'
p1883
sg15
I400
sg16
g12
sg17
g12
sg18
VC:\u005cWindows\u005cFonts\u005cCANDARAI.TTF
p1884
sg20
g21
sbag1
(g8
g3
NtRp1885
(dp1886
g11
g12
sg13
S'Lucida Sans Typewriter'
p1887
sg15
I400
sg16
g12
sg17
g12
sg18
VC:\u005cWindows\u005cFonts\u005cLTYPE.TTF
p1888
sg20
g21
sbag1
(g8
g3
NtRp1889
(dp1890
g11
g69
sg13
S'JasmineUPC'
p1891
sg15
I700
sg16
g12
sg17
g12
sg18
Vc:\u005cwindows\u005cfonts\u005cupcjbi.ttf
p1892
sg20
g21
sbag1
(g8
g3
NtRp1893
(dp1894
g11
g40
sg13
S'Lucida Sans Typewriter'
p1895
sg15
I400
sg16
g12
sg17
g12
sg18
Vc:\u005cwindows\u005cfonts\u005cltypeo.ttf
p1896
sg20
g21
sbag1
(g8
g3
NtRp1897
(dp1898
g11
g12
sg13
S'Consolas'
p1899
sg15
I400
sg16
g12
sg17
g12
sg18
VC:\u005cWindows\u005cFonts\u005cCONSOLA.TTF
p1900
sg20
g21
sbag1
(g8
g3
NtRp1901
(dp1902
g11
g12
sg13
S'Tw Cen MT Condensed Extra Bold'
p1903
sg15
I700
sg16
g267
sg17
g12
sg18
VC:\u005cWindows\u005cFonts\u005cTCCEB.TTF
p1904
sg20
g21
sbag1
(g8
g3
NtRp1905
(dp1906
g11
g12
sg13
S'Microsoft JhengHei'
p1907
sg15
I400
sg16
g12
sg17
g12
sg18
VC:\u005cWindows\u005cFonts\u005cmsjh.ttf
p1908
sg20
g21
sbag1
(g8
g3
NtRp1909
(dp1910
g11
g12
sg13
S'Segoe WP'
p1911
sg15
I400
sg16
g12
sg17
g12
sg18
VC:\u005cWindows\u005cFonts\u005cSegoeWP.ttf
p1912
sg20
g21
sbag1
(g8
g3
NtRp1913
(dp1914
g11
g12
sg13
S'Eras Light ITC'
p1915
sg15
I200
sg16
g12
sg17
g12
sg18
VC:\u005cWindows\u005cFonts\u005cERASLGHT.TTF
p1916
sg20
g21
sbag1
(g8
g3
NtRp1917
(dp1918
g11
g69
sg13
S'Cambria'
p1919
sg15
I700
sg16
g12
sg17
g12
sg18
VC:\u005cWindows\u005cFonts\u005cCAMBRIAZ.TTF
p1920
sg20
g21
sbag1
(g8
g3
NtRp1921
(dp1922
g11
g12
sg13
S'Tw Cen MT'
p1923
sg15
I400
sg16
g12
sg17
g12
sg18
VC:\u005cWindows\u005cFonts\u005cTCM_____.TTF
p1924
sg20
g21
sbag1
(g8
g3
NtRp1925
(dp1926
g11
g69
sg13
S'Carlito'
p1927
sg15
I400
sg16
g12
sg17
g12
sg18
VC:\u005cWindows\u005cFonts\u005cCarlito-Italic.ttf
p1928
sg20
g21
sbag1
(g8
g3
NtRp1929
(dp1930
g11
g12
sg13
S'Goudy Stout'
p1931
sg15
I400
sg16
g12
sg17
g12
sg18
Vc:\u005cwindows\u005cfonts\u005cgoudysto.ttf
p1932
sg20
g21
sbag1
(g8
g3
NtRp1933
(dp1934
g11
g12
sg13
S'Open Sans'
p1935
sg15
I400
sg16
g12
sg17
g12
sg18
Vc:\u005cwindows\u005cfonts\u005copensans-regular.ttf
p1936
sg20
g21
sbag1
(g8
g3
NtRp1937
(dp1938
g11
g69
sg13
S'Caladea'
p1939
sg15
I400
sg16
g12
sg17
g12
sg18
VC:\u005cWindows\u005cFonts\u005cCaladea-Italic.ttf
p1940
sg20
g21
sbag1
(g8
g3
NtRp1941
(dp1942
g11
g69
sg13
S'Calibri'
p1943
sg15
I200
sg16
g12
sg17
g12
sg18
Vc:\u005cwindows\u005cfonts\u005ccalibrili.ttf
p1944
sg20
g21
sbag1
(g8
g3
NtRp1945
(dp1946
g11
g12
sg13
S'David'
p1947
sg15
I400
sg16
g12
sg17
g12
sg18
VC:\u005cWindows\u005cFonts\u005cdavid.ttf
p1948
sg20
g21
sbag1
(g8
g3
NtRp1949
(dp1950
g11
g12
sg13
S'DejaVu Sans'
p1951
sg15
I400
sg16
g12
sg17
g12
sg18
VC:\u005cWindows\u005cFonts\u005cDejaVuSans.ttf
p1952
sg20
g21
sbag1
(g8
g3
NtRp1953
(dp1954
g11
g69
sg13
S'Linux Biolinum G'
p1955
sg15
I400
sg16
g12
sg17
g12
sg18
VC:\u005cWindows\u005cFonts\u005cLinBiolinum_RI_G.ttf
p1956
sg20
g21
sbag1
(g8
g3
NtRp1957
(dp1958
g11
g12
sg13
S'Gigi'
p1959
sg15
I400
sg16
g12
sg17
g12
sg18
VC:\u005cWindows\u005cFonts\u005cGIGI.TTF
p1960
sg20
g21
sbag1
(g8
g3
NtRp1961
(dp1962
g11
g12
sg13
S'Book Antiqua'
p1963
sg15
I700
sg16
g12
sg17
g12
sg18
Vc:\u005cwindows\u005cfonts\u005cantquab.ttf
p1964
sg20
g21
sbag1
(g8
g3
NtRp1965
(dp1966
g11
g12
sg13
S'Tunga'
p1967
sg15
I700
sg16
g12
sg17
g12
sg18
Vc:\u005cwindows\u005cfonts\u005ctungab.ttf
p1968
sg20
g21
sbag1
(g8
g3
NtRp1969
(dp1970
g11
g12
sg13
S'STZhongsong'
p1971
sg15
I400
sg16
g12
sg17
g12
sg18
Vc:\u005cwindows\u005cfonts\u005cstzhongs.ttf
p1972
sg20
g21
sbag1
(g8
g3
NtRp1973
(dp1974
g11
g12
sg13
S'Source Code Pro'
p1975
sg15
I700
sg16
g12
sg17
g12
sg18
Vc:\u005cwindows\u005cfonts\u005csourcecodepro-bold.ttf
p1976
sg20
g21
sbag1
(g8
g3
NtRp1977
(dp1978
g11
g12
sg13
S'Californian FB'
p1979
sg15
I400
sg16
g12
sg17
g12
sg18
VC:\u005cWindows\u005cFonts\u005cCALIFR.TTF
p1980
sg20
g21
sbag1
(g8
g3
NtRp1981
(dp1982
g11
g12
sg13
S'SamsungImaginationBold'
p1983
sg15
I700
sg16
g12
sg17
g12
sg18
Vc:\u005cwindows\u005cfonts\u005csamsungimaginationbold.otf
p1984
sg20
g21
sbag1
(g8
g3
NtRp1985
(dp1986
g11
g12
sg13
S'Gill Sans MT Ext Condensed Bold'
p1987
sg15
I700
sg16
g267
sg17
g12
sg18
Vc:\u005cwindows\u005cfonts\u005cglsnecb.ttf
p1988
sg20
g21
sbag1
(g8
g3
NtRp1989
(dp1990
g11
g12
sg13
S'Segoe WP'
p1991
sg15
I700
sg16
g12
sg17
g12
sg18
VC:\u005cWindows\u005cFonts\u005cSegoeWP-Bold.ttf
p1992
sg20
g21
sbag1
(g8
g3
NtRp1993
(dp1994
g11
g12
sg13
S'EucrosiaUPC'
p1995
sg15
I700
sg16
g12
sg17
g12
sg18
Vc:\u005cwindows\u005cfonts\u005cupceb.ttf
p1996
sg20
g21
sbag1
(g8
g3
NtRp1997
(dp1998
g11
g12
sg13
S'Franklin Gothic Book'
p1999
sg15
I400
sg16
g12
sg17
g12
sg18
Vc:\u005cwindows\u005cfonts\u005cfrabk.ttf
p2000
sg20
g21
sbag1
(g8
g3
NtRp2001
(dp2002
g11
g12
sg13
S'DejaVu Sans Mono'
p2003
sg15
I700
sg16
g12
sg17
g12
sg18
VC:\u005cWindows\u005cFonts\u005cDejaVuSansMono-Bold.ttf
p2004
sg20
g21
sbag1
(g8
g3
NtRp2005
(dp2006
g11
g12
sg13
S'Aparajita'
p2007
sg15
I400
sg16
g12
sg17
g12
sg18
Vc:\u005cwindows\u005cfonts\u005caparaj.ttf
p2008
sg20
g21
sbag1
(g8
g3
NtRp2009
(dp2010
g11
g12
sg13
S'Caladea'
p2011
sg15
I400
sg16
g12
sg17
g12
sg18
VC:\u005cWindows\u005cFonts\u005cCaladea-Regular.ttf
p2012
sg20
g21
sbag1
(g8
g3
NtRp2013
(dp2014
g11
g12
sg13
S'DejaVu Serif'
p2015
sg15
I400
sg16
g267
sg17
g12
sg18
VC:\u005cWindows\u005cFonts\u005cDejaVuSerifCondensed.ttf
p2016
sg20
g21
sbag1
(g8
g3
NtRp2017
(dp2018
g11
g12
sg13
S'Linux Biolinum G'
p2019
sg15
I400
sg16
g12
sg17
g12
sg18
Vc:\u005cwindows\u005cfonts\u005clinbiolinum_r_g.ttf
p2020
sg20
g21
sbag1
(g8
g3
NtRp2021
(dp2022
g11
g12
sg13
S'Goudy Old Style'
p2023
sg15
I700
sg16
g12
sg17
g12
sg18
Vc:\u005cwindows\u005cfonts\u005cgoudosb.ttf
p2024
sg20
g21
sbag1
(g8
g3
NtRp2025
(dp2026
g11
g12
sg13
S'CordiaUPC'
p2027
sg15
I700
sg16
g12
sg17
g12
sg18
VC:\u005cWindows\u005cFonts\u005ccordiaub.ttf
p2028
sg20
g21
sbag1
(g8
g3
NtRp2029
(dp2030
g11
g12
sg13
S'Eras Light ITC'
p2031
sg15
I200
sg16
g12
sg17
g12
sg18
Vc:\u005cwindows\u005cfonts\u005ceraslght.ttf
p2032
sg20
g21
sbag1
(g8
g3
NtRp2033
(dp2034
g11
g69
sg13
S'Tw Cen MT'
p2035
sg15
I700
sg16
g12
sg17
g12
sg18
VC:\u005cWindows\u005cFonts\u005cTCBI____.TTF
p2036
sg20
g21
sbag1
(g8
g3
NtRp2037
(dp2038
g11
g12
sg13
S'Cooper Black'
p2039
sg15
I900
sg16
g12
sg17
g12
sg18
VC:\u005cWindows\u005cFonts\u005cCOOPBL.TTF
p2040
sg20
g21
sbag1
(g8
g3
NtRp2041
(dp2042
g11
g12
sg13
S'JasmineUPC'
p2043
sg15
I400
sg16
g12
sg17
g12
sg18
VC:\u005cWindows\u005cFonts\u005cupcjl.ttf
p2044
sg20
g21
sbag1
(g8
g3
NtRp2045
(dp2046
g11
g12
sg13
S'Constantia'
p2047
sg15
I700
sg16
g12
sg17
g12
sg18
Vc:\u005cwindows\u005cfonts\u005cconstanb.ttf
p2048
sg20
g21
sbag1
(g8
g3
NtRp2049
(dp2050
g11
g69
sg13
S'Caladea'
p2051
sg15
I700
sg16
g12
sg17
g12
sg18
Vc:\u005cwindows\u005cfonts\u005ccaladea-bolditalic.ttf
p2052
sg20
g21
sbag1
(g8
g3
NtRp2053
(dp2054
g11
g12
sg13
S'STXinwei'
p2055
sg15
I400
sg16
g12
sg17
g12
sg18
VC:\u005cWindows\u005cFonts\u005cSTXINWEI.TTF
p2056
sg20
g21
sbag1
(g8
g3
NtRp2057
(dp2058
g11
g69
sg13
S'LilyUPC'
p2059
sg15
I400
sg16
g12
sg17
g12
sg18
VC:\u005cWindows\u005cFonts\u005cupcli.ttf
p2060
sg20
g21
sbag1
(g8
g3
NtRp2061
(dp2062
g11
g12
sg13
S'Perpetua Titling MT'
p2063
sg15
I700
sg16
g12
sg17
g12
sg18
Vc:\u005cwindows\u005cfonts\u005cpertibd.ttf
p2064
sg20
g21
sbag1
(g8
g3
NtRp2065
(dp2066
g11
g69
sg13
S'Utsaah'
p2067
sg15
I700
sg16
g12
sg17
g12
sg18
VC:\u005cWindows\u005cFonts\u005cutsaahbi.ttf
p2068
sg20
g21
sbag1
(g8
g3
NtRp2069
(dp2070
g11
g40
sg13
S'DejaVu Sans'
p2071
sg15
I400
sg16
g267
sg17
g12
sg18
Vc:\u005cwindows\u005cfonts\u005cdejavusanscondensed-oblique.ttf
p2072
sg20
g21
sbag1
(g8
g3
NtRp2073
(dp2074
g11
g69
sg13
S'Elephant'
p2075
sg15
I400
sg16
g12
sg17
g12
sg18
Vc:\u005cwindows\u005cfonts\u005celephnti.ttf
p2076
sg20
g21
sbag1
(g8
g3
NtRp2077
(dp2078
g11
g69
sg13
S'Times New Roman'
p2079
sg15
I500
sg16
g12
sg17
g12
sg18
VC:\u005cWindows\u005cFonts\u005ctimesi.ttf
p2080
sg20
g21
sbag1
(g8
g3
NtRp2081
(dp2082
g11
g69
sg13
S'Century Gothic'
p2083
sg15
I700
sg16
g12
sg17
g12
sg18
Vc:\u005cwindows\u005cfonts\u005cgothicbi.ttf
p2084
sg20
g21
sbag1
(g8
g3
NtRp2085
(dp2086
g11
g12
sg13
S'Gabriola'
p2087
sg15
I400
sg16
g12
sg17
g12
sg18
VC:\u005cWindows\u005cFonts\u005cGabriola.ttf
p2088
sg20
g21
sbag1
(g8
g3
NtRp2089
(dp2090
g11
g12
sg13
S'Harrington'
p2091
sg15
I400
sg16
g12
sg17
g12
sg18
Vc:\u005cwindows\u005cfonts\u005charngton.ttf
p2092
sg20
g21
sbag1
(g8
g3
NtRp2093
(dp2094
g11
g12
sg13
S'Carlito'
p2095
sg15
I400
sg16
g12
sg17
g12
sg18
VC:\u005cWindows\u005cFonts\u005cCarlito-Regular.ttf
p2096
sg20
g21
sbag1
(g8
g3
NtRp2097
(dp2098
g11
g12
sg13
S'Gill Sans Ultra Bold'
p2099
sg15
I700
sg16
g12
sg17
g12
sg18
VC:\u005cWindows\u005cFonts\u005cGILSANUB.TTF
p2100
sg20
g21
sbag1
(g8
g3
NtRp2101
(dp2102
g11
g12
sg13
S'Microsoft MHei'
p2103
sg15
I700
sg16
g12
sg17
g12
sg18
Vc:\u005cwindows\u005cfonts\u005cmsmhei-bold.ttf
p2104
sg20
g21
sbag1
(g8
g3
NtRp2105
(dp2106
g11
g12
sg13
S'Iskoola Pota'
p2107
sg15
I400
sg16
g12
sg17
g12
sg18
Vc:\u005cwindows\u005cfonts\u005ciskpota.ttf
p2108
sg20
g21
sbag1
(g8
g3
NtRp2109
(dp2110
g11
g12
sg13
S'Bodoni MT'
p2111
sg15
I700
sg16
g267
sg17
g12
sg18
VC:\u005cWindows\u005cFonts\u005cBOD_CB.TTF
p2112
sg20
g21
sbag1
(g8
g3
NtRp2113
(dp2114
g11
g12
sg13
S'Engravers MT'
p2115
sg15
I400
sg16
g12
sg17
g12
sg18
VC:\u005cWindows\u005cFonts\u005cENGR.TTF
p2116
sg20
g21
sbag1
(g8
g3
NtRp2117
(dp2118
g11
g69
sg13
S'Garamond'
p2119
sg15
I400
sg16
g12
sg17
g12
sg18
Vc:\u005cwindows\u005cfonts\u005cgarait.ttf
p2120
sg20
g21
sbag1
(g8
g3
NtRp2121
(dp2122
g11
g69
sg13
S'Open Sans'
p2123
sg15
I700
sg16
g12
sg17
g12
sg18
Vc:\u005cwindows\u005cfonts\u005copensans-bolditalic.ttf
p2124
sg20
g21
sbag1
(g8
g3
NtRp2125
(dp2126
g11
g12
sg13
S'Gill Sans MT'
p2127
sg15
I700
sg16
g12
sg17
g12
sg18
Vc:\u005cwindows\u005cfonts\u005cgilb____.ttf
p2128
sg20
g21
sbag1
(g8
g3
NtRp2129
(dp2130
g11
g12
sg13
S'Linux Libertine Display G'
p2131
sg15
I400
sg16
g12
sg17
g12
sg18
VC:\u005cWindows\u005cFonts\u005cLinLibertine_DR_G.ttf
p2132
sg20
g21
sbag1
(g8
g3
NtRp2133
(dp2134
g11
g12
sg13
S'Century'
p2135
sg15
I400
sg16
g12
sg17
g12
sg18
Vc:\u005cwindows\u005cfonts\u005ccentury.ttf
p2136
sg20
g21
sbag1
(g8
g3
NtRp2137
(dp2138
g11
g12
sg13
S'Segoe WP'
p2139
sg15
I400
sg16
g12
sg17
g12
sg18
Vc:\u005cwindows\u005cfonts\u005csegoewp-light.ttf
p2140
sg20
g21
sbag1
(g8
g3
NtRp2141
(dp2142
g11
g69
sg13
S'Liberation Sans Narrow'
p2143
sg15
I700
sg16
g267
sg17
g12
sg18
Vc:\u005cwindows\u005cfonts\u005cliberationsansnarrow-bolditalic.ttf
p2144
sg20
g21
sbag1
(g8
g3
NtRp2145
(dp2146
g11
g12
sg13
S'DejaVu Serif'
p2147
sg15
I400
sg16
g12
sg17
g12
sg18
VC:\u005cWindows\u005cFonts\u005cDejaVuSerif.ttf
p2148
sg20
g21
sbag1
(g8
g3
NtRp2149
(dp2150
g11
g69
sg13
S'Aparajita'
p2151
sg15
I400
sg16
g12
sg17
g12
sg18
Vc:\u005cwindows\u005cfonts\u005caparaji.ttf
p2152
sg20
g21
sbag1
(g8
g3
NtRp2153
(dp2154
g11
g69
sg13
S'Constantia'
p2155
sg15
I700
sg16
g12
sg17
g12
sg18
Vc:\u005cwindows\u005cfonts\u005cconstanz.ttf
p2156
sg20
g21
sbag1
(g8
g3
NtRp2157
(dp2158
g11
g12
sg13
S'Mongolian Baiti'
p2159
sg15
I400
sg16
g12
sg17
g12
sg18
VC:\u005cWindows\u005cFonts\u005cmonbaiti.ttf
p2160
sg20
g21
sbag1
(g8
g3
NtRp2161
(dp2162
g11
g12
sg13
S'Arial'
p2163
sg15
I700
sg16
g267
sg17
g12
sg18
Vc:\u005cwindows\u005cfonts\u005carialnb.ttf
p2164
sg20
g21
sbag1
(g8
g3
NtRp2165
(dp2166
g11
g12
sg13
S'Gentium Basic'
p2167
sg15
I400
sg16
g12
sg17
g12
sg18
VC:\u005cWindows\u005cFonts\u005cGenBasR.ttf
p2168
sg20
g21
sbag1
(g8
g3
NtRp2169
(dp2170
g11
g12
sg13
S'MS Outlook'
p2171
sg15
I400
sg16
g12
sg17
g12
sg18
Vc:\u005cwindows\u005cfonts\u005coutlook.ttf
p2172
sg20
g21
sbag1
(g8
g3
NtRp2173
(dp2174
g11
g69
sg13
S'Lucida Fax'
p2175
sg15
I700
sg16
g12
sg17
g12
sg18
Vc:\u005cwindows\u005cfonts\u005clfaxdi.ttf
p2176
sg20
g21
sbag1
(g8
g3
NtRp2177
(dp2178
g11
g12
sg13
S'Candara'
p2179
sg15
I400
sg16
g12
sg17
g12
sg18
Vc:\u005cwindows\u005cfonts\u005ccandara.ttf
p2180
sg20
g21
sbag1
(g8
g3
NtRp2181
(dp2182
g11
g12
sg13
S'FZShuTi'
p2183
sg15
I400
sg16
g12
sg17
g12
sg18
Vc:\u005cwindows\u005cfonts\u005cfzstk.ttf
p2184
sg20
g21
sbag1
(g8
g3
NtRp2185
(dp2186
g11
g69
sg13
S'Carlito'
p2187
sg15
I700
sg16
g12
sg17
g12
sg18
Vc:\u005cwindows\u005cfonts\u005ccarlito-bolditalic.ttf
p2188
sg20
g21
sbag1
(g8
g3
NtRp2189
(dp2190
g11
g12
sg13
S'Perpetua'
p2191
sg15
I400
sg16
g12
sg17
g12
sg18
VC:\u005cWindows\u005cFonts\u005cPER_____.TTF
p2192
sg20
g21
sbag1
(g8
g3
NtRp2193
(dp2194
g11
g12
sg13
S'Vijaya'
p2195
sg15
I400
sg16
g12
sg17
g12
sg18
Vc:\u005cwindows\u005cfonts\u005cvijaya.ttf
p2196
sg20
g21
sbag1
(g8
g3
NtRp2197
(dp2198
g11
g12
sg13
S'Arial'
p2199
sg15
I400
sg16
g267
sg17
g12
sg18
Vc:\u005cwindows\u005cfonts\u005carialn.ttf
p2200
sg20
g21
sbag1
(g8
g3
NtRp2201
(dp2202
g11
g12
sg13
S'Miriam'
p2203
sg15
I400
sg16
g12
sg17
g12
sg18
Vc:\u005cwindows\u005cfonts\u005cmriam.ttf
p2204
sg20
g21
sbag1
(g8
g3
NtRp2205
(dp2206
g11
g69
sg13
S'Cordia New'
p2207
sg15
I400
sg16
g12
sg17
g12
sg18
VC:\u005cWindows\u005cFonts\u005ccordiai.ttf
p2208
sg20
g21
sbag1
(g8
g3
NtRp2209
(dp2210
g11
g12
sg13
S'Segoe UI'
p2211
sg15
I400
sg16
g12
sg17
g12
sg18
VC:\u005cWindows\u005cFonts\u005csegoeuil.ttf
p2212
sg20
g21
sbag1
(g8
g3
NtRp2213
(dp2214
g11
g69
sg13
S'Source Sans Pro'
p2215
sg15
I200
sg16
g12
sg17
g12
sg18
VC:\u005cWindows\u005cFonts\u005cSourceSansPro-ExtraLightIt.ttf
p2216
sg20
g21
sbag1
(g8
g3
NtRp2217
(dp2218
g11
g12
sg13
S'Lucida Fax'
p2219
sg15
I400
sg16
g12
sg17
g12
sg18
Vc:\u005cwindows\u005cfonts\u005clfax.ttf
p2220
sg20
g21
sbag1
(g8
g3
NtRp2221
(dp2222
g11
g12
sg13
S'FreeSans'
p2223
sg15
I700
sg16
g12
sg17
g12
sg18
Vc:\u005cwindows\u005cfonts\u005cfreesansbold.ttf
p2224
sg20
g21
sbag1
(g8
g3
NtRp2225
(dp2226
g11
g12
sg13
S'Source Code Pro'
p2227
sg15
I400
sg16
g12
sg17
g12
sg18
Vc:\u005cwindows\u005cfonts\u005csourcecodepro-regular.ttf
p2228
sg20
g21
sbag1
(g8
g3
NtRp2229
(dp2230
g11
g69
sg13
S'Gill Sans MT'
p2231
sg15
I400
sg16
g12
sg17
g12
sg18
VC:\u005cWindows\u005cFonts\u005cGILI____.TTF
p2232
sg20
g21
sbag1
(g8
g3
NtRp2233
(dp2234
g11
g12
sg13
S'Sakkal Majalla'
p2235
sg15
I700
sg16
g12
sg17
g12
sg18
VC:\u005cWindows\u005cFonts\u005cmajallab.ttf
p2236
sg20
g21
sbag1
(g8
g3
NtRp2237
(dp2238
g11
g12
sg13
S'Arial'
p2239
sg15
I400
sg16
g12
sg17
g12
sg18
VC:\u005cWindows\u005cFonts\u005cArialtbg.ttf
p2240
sg20
g21
sbag1
(g8
g3
NtRp2241
(dp2242
g11
g12
sg13
S'Tw Cen MT Condensed'
p2243
sg15
I700
sg16
g267
sg17
g12
sg18
VC:\u005cWindows\u005cFonts\u005cTCCB____.TTF
p2244
sg20
g21
sbag1
(g8
g3
NtRp2245
(dp2246
g11
g69
sg13
S'Rage Italic'
p2247
sg15
I400
sg16
g12
sg17
g12
sg18
VC:\u005cWindows\u005cFonts\u005cRAGE.TTF
p2248
sg20
g21
sbag1
(g8
g3
NtRp2249
(dp2250
g11
g12
sg13
S'Haettenschweiler'
p2251
sg15
I400
sg16
g12
sg17
g12
sg18
Vc:\u005cwindows\u005cfonts\u005chatten.ttf
p2252
sg20
g21
sbag1
(g8
g3
NtRp2253
(dp2254
g11
g69
sg13
S'Perpetua'
p2255
sg15
I700
sg16
g12
sg17
g12
sg18
VC:\u005cWindows\u005cFonts\u005cPERBI___.TTF
p2256
sg20
g21
sbag1
(g8
g3
NtRp2257
(dp2258
g11
g12
sg13
S'Shonar Bangla'
p2259
sg15
I400
sg16
g12
sg17
g12
sg18
VC:\u005cWindows\u005cFonts\u005cShonar.ttf
p2260
sg20
g21
sbag1
(g8
g3
NtRp2261
(dp2262
g11
g12
sg13
S'Berlin Sans FB'
p2263
sg15
I400
sg16
g12
sg17
g12
sg18
Vc:\u005cwindows\u005cfonts\u005cbrlnsr.ttf
p2264
sg20
g21
sbag1
(g8
g3
NtRp2265
(dp2266
g11
g12
sg13
S'Wide Latin'
p2267
sg15
I400
sg16
Vexpanded
p2268
sg17
g12
sg18
VC:\u005cWindows\u005cFonts\u005cLATINWD.TTF
p2269
sg20
g21
sbag1
(g8
g3
NtRp2270
(dp2271
g11
g12
sg13
S'Bookshelf Symbol 7'
p2272
sg15
I400
sg16
g12
sg17
g12
sg18
VC:\u005cWindows\u005cFonts\u005cBSSYM7.TTF
p2273
sg20
g21
sbag1
(g8
g3
NtRp2274
(dp2275
g11
g12
sg13
S'Wingdings'
p2276
sg15
I400
sg16
g12
sg17
g12
sg18
Vc:\u005cwindows\u005cfonts\u005cwingding.ttf
p2277
sg20
g21
sbag1
(g8
g3
NtRp2278
(dp2279
g11
g12
sg13
S'Bell MT'
p2280
sg15
I400
sg16
g12
sg17
g12
sg18
Vc:\u005cwindows\u005cfonts\u005cbell.ttf
p2281
sg20
g21
sbag1
(g8
g3
NtRp2282
(dp2283
g11
g69
sg13
S'Source Sans Pro'
p2284
sg15
I200
sg16
g12
sg17
g12
sg18
VC:\u005cWindows\u005cFonts\u005cSourceSansPro-LightIt.ttf
p2285
sg20
g21
sbag1
(g8
g3
NtRp2286
(dp2287
g11
g12
sg13
S'Forte'
p2288
sg15
I400
sg16
g12
sg17
g12
sg18
VC:\u005cWindows\u005cFonts\u005cFORTE.TTF
p2289
sg20
g21
sbag1
(g8
g3
NtRp2290
(dp2291
g11
g12
sg13
S'DengXian'
p2292
sg15
I400
sg16
g12
sg17
g12
sg18
VC:\u005cWindows\u005cFonts\u005cDengXian.ttf
p2293
sg20
g21
sbag1
(g8
g3
NtRp2294
(dp2295
g11
g12
sg13
S'Bodoni MT'
p2296
sg15
I700
sg16
g12
sg17
g12
sg18
VC:\u005cWindows\u005cFonts\u005cBOD_B.TTF
p2297
sg20
g21
sbag1
(g8
g3
NtRp2298
(dp2299
g11
g69
sg13
S'DejaVu Serif'
p2300
sg15
I700
sg16
g267
sg17
g12
sg18
Vc:\u005cwindows\u005cfonts\u005cdejavuserifcondensed-bolditalic.ttf
p2301
sg20
g21
sbag1
(g8
g3
NtRp2302
(dp2303
g11
g69
sg13
S'Franklin Gothic Heavy'
p2304
sg15
I800
sg16
g12
sg17
g12
sg18
VC:\u005cWindows\u005cFonts\u005cFRAHVIT.TTF
p2305
sg20
g21
sbag1
(g8
g3
NtRp2306
(dp2307
g11
g12
sg13
S'Candara'
p2308
sg15
I700
sg16
g12
sg17
g12
sg18
Vc:\u005cwindows\u005cfonts\u005ccandarab.ttf
p2309
sg20
g21
sbag1
(g8
g3
NtRp2310
(dp2311
g11
g12
sg13
S'Tw Cen MT Condensed'
p2312
sg15
I400
sg16
g267
sg17
g12
sg18
VC:\u005cWindows\u005cFonts\u005cTCCM____.TTF
p2313
sg20
g21
sbag1
(g8
g3
NtRp2314
(dp2315
g11
g12
sg13
S'Juice ITC'
p2316
sg15
I400
sg16
g12
sg17
g12
sg18
Vc:\u005cwindows\u005cfonts\u005cjuice___.ttf
p2317
sg20
g21
sbag1
(g8
g3
NtRp2318
(dp2319
g11
g12
sg13
S'French Script MT'
p2320
sg15
I400
sg16
g12
sg17
g12
sg18
VC:\u005cWindows\u005cFonts\u005cFRSCRIPT.TTF
p2321
sg20
g21
sbag1
(g8
g3
NtRp2322
(dp2323
g11
g12
sg13
S'Century Schoolbook'
p2324
sg15
I700
sg16
g12
sg17
g12
sg18
VC:\u005cWindows\u005cFonts\u005cSCHLBKB.TTF
p2325
sg20
g21
sbag1
(g8
g3
NtRp2326
(dp2327
g11
g12
sg13
S'Lucida Sans'
p2328
sg15
I400
sg16
g12
sg17
g12
sg18
Vc:\u005cwindows\u005cfonts\u005clsans.ttf
p2329
sg20
g21
sbag1
(g8
g3
NtRp2330
(dp2331
g11
g12
sg13
S'Mistral'
p2332
sg15
I400
sg16
g12
sg17
g12
sg18
VC:\u005cWindows\u005cFonts\u005cMISTRAL.TTF
p2333
sg20
g21
sbag1
(g8
g3
NtRp2334
(dp2335
g11
g12
sg13
S'Franklin Gothic Medium Cond'
p2336
sg15
I500
sg16
g267
sg17
g12
sg18
Vc:\u005cwindows\u005cfonts\u005cframdcn.ttf
p2337
sg20
g21
sbag1
(g8
g3
NtRp2338
(dp2339
g11
g12
sg13
S'Garamond'
p2340
sg15
I700
sg16
g12
sg17
g12
sg18
VC:\u005cWindows\u005cFonts\u005cGARABD.TTF
p2341
sg20
g21
sbag1
(g8
g3
NtRp2342
(dp2343
g11
g69
sg13
S'Franklin Gothic Book'
p2344
sg15
I400
sg16
g12
sg17
g12
sg18
VC:\u005cWindows\u005cFonts\u005cFRABKIT.TTF
p2345
sg20
g21
sbag1
(g8
g3
NtRp2346
(dp2347
g11
g69
sg13
S'Caladea'
p2348
sg15
I700
sg16
g12
sg17
g12
sg18
VC:\u005cWindows\u005cFonts\u005cCaladea-BoldItalic.ttf
p2349
sg20
g21
sbag1
(g8
g3
NtRp2350
(dp2351
g11
g12
sg13
S'DejaVu Sans Mono'
p2352
sg15
I700
sg16
g12
sg17
g12
sg18
Vc:\u005cwindows\u005cfonts\u005cdejavusansmono-bold.ttf
p2353
sg20
g21
sbag1
(g8
g3
NtRp2354
(dp2355
g11
g12
sg13
S'DejaVu Sans Mono'
p2356
sg15
I400
sg16
g12
sg17
g12
sg18
Vc:\u005cwindows\u005cfonts\u005cdejavusansmono.ttf
p2357
sg20
g21
sbag1
(g8
g3
NtRp2358
(dp2359
g11
g12
sg13
S'FrankRuehl'
p2360
sg15
I400
sg16
g12
sg17
g12
sg18
VC:\u005cWindows\u005cFonts\u005cfrank.ttf
p2361
sg20
g21
sbag1
(g8
g3
NtRp2362
(dp2363
g11
g12
sg13
S'SketchFlow Print'
p2364
sg15
I400
sg16
g12
sg17
g12
sg18
VC:\u005cWindows\u005cFonts\u005cSketchFlow Print.ttf
p2365
sg20
g21
sbag1
(g8
g3
NtRp2366
(dp2367
g11
g12
sg13
S'Castellar'
p2368
sg15
I400
sg16
g12
sg17
g12
sg18
VC:\u005cWindows\u005cFonts\u005cCASTELAR.TTF
p2369
sg20
g21
sbag1
(g8
g3
NtRp2370
(dp2371
g11
g12
sg13
S'Palatino Linotype'
p2372
sg15
I700
sg16
g12
sg17
g12
sg18
Vc:\u005cwindows\u005cfonts\u005cpalab.ttf
p2373
sg20
g21
sbag1
(g8
g3
NtRp2374
(dp2375
g11
g12
sg13
S'Yu Gothic'
p2376
sg15
I700
sg16
g12
sg17
g12
sg18
Vc:\u005cwindows\u005cfonts\u005cyugothic-bold.ttf
p2377
sg20
g21
sbag1
(g8
g3
NtRp2378
(dp2379
g11
g69
sg13
S'Lucida Fax'
p2380
sg15
I400
sg16
g12
sg17
g12
sg18
VC:\u005cWindows\u005cFonts\u005cLFAXI.TTF
p2381
sg20
g21
sbag1
(g8
g3
NtRp2382
(dp2383
g11
g12
sg13
S'Freestyle Script'
p2384
sg15
I400
sg16
g12
sg17
g12
sg18
Vc:\u005cwindows\u005cfonts\u005cfreescpt.ttf
p2385
sg20
g21
sbag1
(g8
g3
NtRp2386
(dp2387
g11
g69
sg13
S'Bodoni MT'
p2388
sg15
I400
sg16
g267
sg17
g12
sg18
Vc:\u005cwindows\u005cfonts\u005cbod_ci.ttf
p2389
sg20
g21
sbag1
(g8
g3
NtRp2390
(dp2391
g11
g12
sg13
S'Bell MT'
p2392
sg15
I400
sg16
g12
sg17
g12
sg18
VC:\u005cWindows\u005cFonts\u005cBELL.TTF
p2393
sg20
g21
sbag1
(g8
g3
NtRp2394
(dp2395
g11
g69
sg13
S'Corbel'
p2396
sg15
I400
sg16
g12
sg17
g12
sg18
VC:\u005cWindows\u005cFonts\u005cCORBELI.TTF
p2397
sg20
g21
sbag1
(g8
g3
NtRp2398
(dp2399
g11
g12
sg13
S'Gill Sans Ultra Bold'
p2400
sg15
I700
sg16
g12
sg17
g12
sg18
Vc:\u005cwindows\u005cfonts\u005cgilsanub.ttf
p2401
sg20
g21
sbag1
(g8
g3
NtRp2402
(dp2403
g11
g12
sg13
S'Papyrus'
p2404
sg15
I400
sg16
g12
sg17
g12
sg18
VC:\u005cWindows\u005cFonts\u005cPAPYRUS.TTF
p2405
sg20
g21
sbag1
(g8
g3
NtRp2406
(dp2407
g11
g12
sg13
S'Gigi'
p2408
sg15
I400
sg16
g12
sg17
g12
sg18
Vc:\u005cwindows\u005cfonts\u005cgigi.ttf
p2409
sg20
g21
sbag1
(g8
g3
NtRp2410
(dp2411
g11
g12
sg13
S'Tempus Sans ITC'
p2412
sg15
I400
sg16
g12
sg17
g12
sg18
Vc:\u005cwindows\u005cfonts\u005ctempsitc.ttf
p2413
sg20
g21
sbag1
(g8
g3
NtRp2414
(dp2415
g11
g12
sg13
S'Lucida Bright'
p2416
sg15
I700
sg16
g12
sg17
g12
sg18
VC:\u005cWindows\u005cFonts\u005cLBRITED.TTF
p2417
sg20
g21
sbag1
(g8
g3
NtRp2418
(dp2419
g11
g12
sg13
S'Liberation Mono'
p2420
sg15
I700
sg16
g12
sg17
g12
sg18
Vc:\u005cwindows\u005cfonts\u005cliberationmono-bold.ttf
p2421
sg20
g21
sbag1
(g8
g3
NtRp2422
(dp2423
g11
g69
sg13
S'LilyUPC'
p2424
sg15
I700
sg16
g12
sg17
g12
sg18
Vc:\u005cwindows\u005cfonts\u005cupclbi.ttf
p2425
sg20
g21
sbag1
(g8
g3
NtRp2426
(dp2427
g11
g12
sg13
S'Liberation Serif'
p2428
sg15
I700
sg16
g12
sg17
g12
sg18
VC:\u005cWindows\u005cFonts\u005cLiberationSerif-Bold.ttf
p2429
sg20
g21
sbag1
(g8
g3
NtRp2430
(dp2431
g11
g12
sg13
S'Wide Latin'
p2432
sg15
I400
sg16
g2268
sg17
g12
sg18
Vc:\u005cwindows\u005cfonts\u005clatinwd.ttf
p2433
sg20
g21
sbag1
(g8
g3
NtRp2434
(dp2435
g11
g12
sg13
S'Raavi'
p2436
sg15
I700
sg16
g12
sg17
g12
sg18
VC:\u005cWindows\u005cFonts\u005craavib.ttf
p2437
sg20
g21
sbag1
(g8
g3
NtRp2438
(dp2439
g11
g12
sg13
S'High Tower Text'
p2440
sg15
I400
sg16
g12
sg17
g12
sg18
Vc:\u005cwindows\u005cfonts\u005chtowert.ttf
p2441
sg20
g21
sbag1
(g8
g3
NtRp2442
(dp2443
g11
g12
sg13
S'Papyrus'
p2444
sg15
I400
sg16
g12
sg17
g12
sg18
Vc:\u005cwindows\u005cfonts\u005cpapyrus.ttf
p2445
sg20
g21
sbag1
(g8
g3
NtRp2446
(dp2447
g11
g69
sg13
S'Lucida Bright'
p2448
sg15
I700
sg16
g12
sg17
g12
sg18
Vc:\u005cwindows\u005cfonts\u005clbritedi.ttf
p2449
sg20
g21
sbag1
(g8
g3
NtRp2450
(dp2451
g11
g69
sg13
S'Liberation Mono'
p2452
sg15
I400
sg16
g12
sg17
g12
sg18
Vc:\u005cwindows\u005cfonts\u005cliberationmono-italic.ttf
p2453
sg20
g21
sbag1
(g8
g3
NtRp2454
(dp2455
g11
g69
sg13
S'FreesiaUPC'
p2456
sg15
I700
sg16
g12
sg17
g12
sg18
VC:\u005cWindows\u005cFonts\u005cupcfbi.ttf
p2457
sg20
g21
sbag1
(g8
g3
NtRp2458
(dp2459
g11
g12
sg13
S'Segoe WP'
p2460
sg15
I400
sg16
g12
sg17
g12
sg18
Vc:\u005cwindows\u005cfonts\u005csegoewp-semibold.ttf
p2461
sg20
g21
sbag1
(g8
g3
NtRp2462
(dp2463
g11
g12
sg13
S'Elephant'
p2464
sg15
I400
sg16
g12
sg17
g12
sg18
Vc:\u005cwindows\u005cfonts\u005celephnt.ttf
p2465
sg20
g21
sbag1
(g8
g3
NtRp2466
(dp2467
g11
g69
sg13
S'jsMath-cmti10'
p2468
sg15
I400
sg16
g12
sg17
g12
sg18
Vc:\u005cwindows\u005cfonts\u005cjsmath-cmti10.ttf
p2469
sg20
g21
sbag1
(g8
g3
NtRp2470
(dp2471
g11
g12
sg13
S'Source Code Pro'
p2472
sg15
I200
sg16
g12
sg17
g12
sg18
Vc:\u005cwindows\u005cfonts\u005csourcecodepro-light.ttf
p2473
sg20
g21
sbag1
(g8
g3
NtRp2474
(dp2475
g11
g12
sg13
S'FZYaoTi'
p2476
sg15
I400
sg16
g12
sg17
g12
sg18
VC:\u005cWindows\u005cFonts\u005cFZYTK.TTF
p2477
sg20
g21
sbag1
(g8
g3
NtRp2478
(dp2479
g11
g12
sg13
S'Franklin Gothic Medium Cond'
p2480
sg15
I500
sg16
g267
sg17
g12
sg18
VC:\u005cWindows\u005cFonts\u005cFRAMDCN.TTF
p2481
sg20
g21
sbag1
(g8
g3
NtRp2482
(dp2483
g11
g12
sg13
S'DejaVu Sans'
p2484
sg15
I700
sg16
g12
sg17
g12
sg18
VC:\u005cWindows\u005cFonts\u005cDejaVuSans-Bold.ttf
p2485
sg20
g21
sbag1
(g8
g3
NtRp2486
(dp2487
g11
g69
sg13
S'Consolas'
p2488
sg15
I700
sg16
g12
sg17
g12
sg18
Vc:\u005cwindows\u005cfonts\u005cconsolaz.ttf
p2489
sg20
g21
sbag1
(g8
g3
NtRp2490
(dp2491
g11
g69
sg13
S'Bookman Old Style'
p2492
sg15
I700
sg16
g12
sg17
g12
sg18
Vc:\u005cwindows\u005cfonts\u005cbookosbi.ttf
p2493
sg20
g21
sbag1
(g8
g3
NtRp2494
(dp2495
g11
g12
sg13
S'High Tower Text'
p2496
sg15
I400
sg16
g12
sg17
g12
sg18
VC:\u005cWindows\u005cFonts\u005cHTOWERT.TTF
p2497
sg20
g21
sbag1
(g8
g3
NtRp2498
(dp2499
g11
g69
sg13
S'EucrosiaUPC'
p2500
sg15
I400
sg16
g12
sg17
g12
sg18
Vc:\u005cwindows\u005cfonts\u005cupcei.ttf
p2501
sg20
g21
sbag1
(g8
g3
NtRp2502
(dp2503
g11
g12
sg13
S'KodchiangUPC'
p2504
sg15
I700
sg16
g12
sg17
g12
sg18
Vc:\u005cwindows\u005cfonts\u005cupckb.ttf
p2505
sg20
g21
sbag1
(g8
g3
NtRp2506
(dp2507
g11
g12
sg13
S'Linux Libertine G'
p2508
sg15
I700
sg16
g12
sg17
g12
sg18
Vc:\u005cwindows\u005cfonts\u005clinlibertine_rz_g.ttf
p2509
sg20
g21
sbag1
(g8
g3
NtRp2510
(dp2511
g11
g12
sg13
S'Segoe WP'
p2512
sg15
I400
sg16
g12
sg17
g12
sg18
VC:\u005cWindows\u005cFonts\u005cSegoeWP-Semibold.ttf
p2513
sg20
g21
sbag1
(g8
g3
NtRp2514
(dp2515
g11
g12
sg13
S'Microsoft New Tai Lue'
p2516
sg15
I400
sg16
g12
sg17
g12
sg18
VC:\u005cWindows\u005cFonts\u005cntailu.ttf
p2517
sg20
g21
sbag1
(g8
g3
NtRp2518
(dp2519
g11
g12
sg13
S'Vani'
p2520
sg15
I700
sg16
g12
sg17
g12
sg18
VC:\u005cWindows\u005cFonts\u005cVanib.ttf
p2521
sg20
g21
sbag1
(g8
g3
NtRp2522
(dp2523
g11
g12
sg13
S'Liberation Serif'
p2524
sg15
I400
sg16
g12
sg17
g12
sg18
VC:\u005cWindows\u005cFonts\u005cLiberationSerif-Regular.ttf
p2525
sg20
g21
sbag1
(g8
g3
NtRp2526
(dp2527
g11
g12
sg13
S'Liberation Mono'
p2528
sg15
I400
sg16
g12
sg17
g12
sg18
Vc:\u005cwindows\u005cfonts\u005cliberationmono-regular.ttf
p2529
sg20
g21
sbag1
(g8
g3
NtRp2530
(dp2531
g11
g69
sg13
S'Linux Libertine G'
p2532
sg15
I400
sg16
g12
sg17
g12
sg18
VC:\u005cWindows\u005cFonts\u005cLinLibertine_RI_G.ttf
p2533
sg20
g21
sbag1
(g8
g3
NtRp2534
(dp2535
g11
g69
sg13
S'DejaVu Serif'
p2536
sg15
I700
sg16
g12
sg17
g12
sg18
Vc:\u005cwindows\u005cfonts\u005cdejavuserif-bolditalic.ttf
p2537
sg20
g21
sbag1
(g8
g3
NtRp2538
(dp2539
g11
g12
sg13
S'Gisha'
p2540
sg15
I700
sg16
g12
sg17
g12
sg18
VC:\u005cWindows\u005cFonts\u005cgishabd.ttf
p2541
sg20
g21
sbag1
(g8
g3
NtRp2542
(dp2543
g11
g12
sg13
S'Source Sans Pro'
p2544
sg15
I700
sg16
g12
sg17
g12
sg18
Vc:\u005cwindows\u005cfonts\u005csourcesanspro-bold.ttf
p2545
sg20
g21
sbag1
(g8
g3
NtRp2546
(dp2547
g11
g69
sg13
S'Lucida Bright'
p2548
sg15
I400
sg16
g12
sg17
g12
sg18
VC:\u005cWindows\u005cFonts\u005cLBRITEI.TTF
p2549
sg20
g21
sbag1
(g8
g3
NtRp2550
(dp2551
g11
g12
sg13
S'Perpetua'
p2552
sg15
I700
sg16
g12
sg17
g12
sg18
VC:\u005cWindows\u005cFonts\u005cPERB____.TTF
p2553
sg20
g21
sbag1
(g8
g3
NtRp2554
(dp2555
g11
g12
sg13
S'Estrangelo Edessa'
p2556
sg15
I400
sg16
g12
sg17
g12
sg18
VC:\u005cWindows\u005cFonts\u005cestre.ttf
p2557
sg20
g21
sbag1
(g8
g3
NtRp2558
(dp2559
g11
g12
sg13
S'Nyala'
p2560
sg15
I400
sg16
g12
sg17
g12
sg18
Vc:\u005cwindows\u005cfonts\u005cnyala.ttf
p2561
sg20
g21
sbag1
(g8
g3
NtRp2562
(dp2563
g11
g12
sg13
S'Lucida Fax'
p2564
sg15
I400
sg16
g12
sg17
g12
sg18
VC:\u005cWindows\u005cFonts\u005cLFAX.TTF
p2565
sg20
g21
sbag1
(g8
g3
NtRp2566
(dp2567
g11
g12
sg13
S'Bell MT'
p2568
sg15
I700
sg16
g12
sg17
g12
sg18
VC:\u005cWindows\u005cFonts\u005cBELLB.TTF
p2569
sg20
g21
sbag1
(g8
g3
NtRp2570
(dp2571
g11
g12
sg13
S'Franklin Gothic Demi Cond'
p2572
sg15
I600
sg16
g267
sg17
g12
sg18
Vc:\u005cwindows\u005cfonts\u005cfradmcn.ttf
p2573
sg20
g21
sbag1
(g8
g3
NtRp2574
(dp2575
g11
g12
sg13
S'Rockwell'
p2576
sg15
I400
sg16
g12
sg17
g12
sg18
Vc:\u005cwindows\u005cfonts\u005crock.ttf
p2577
sg20
g21
sbag1
(g8
g3
NtRp2578
(dp2579
g11
g12
sg13
S'Agency FB'
p2580
sg15
I700
sg16
g12
sg17
g12
sg18
VC:\u005cWindows\u005cFonts\u005cAGENCYB.TTF
p2581
sg20
g21
sbag1
(g8
g3
NtRp2582
(dp2583
g11
g12
sg13
S'Vrinda'
p2584
sg15
I400
sg16
g12
sg17
g12
sg18
VC:\u005cWindows\u005cFonts\u005cvrinda.ttf
p2585
sg20
g21
sbag1
(g8
g3
NtRp2586
(dp2587
g11
g12
sg13
S'Carlito'
p2588
sg15
I400
sg16
g12
sg17
g12
sg18
Vc:\u005cwindows\u005cfonts\u005ccarlito-regular.ttf
p2589
sg20
g21
sbag1
(g8
g3
NtRp2590
(dp2591
g11
g69
sg13
S'Lucida Sans'
p2592
sg15
I700
sg16
g12
sg17
g12
sg18
Vc:\u005cwindows\u005cfonts\u005clsansdi.ttf
p2593
sg20
g21
sbag1
(g8
g3
NtRp2594
(dp2595
g11
g12
sg13
S'Tw Cen MT'
p2596
sg15
I700
sg16
g12
sg17
g12
sg18
Vc:\u005cwindows\u005cfonts\u005ctcb_____.ttf
p2597
sg20
g21
sbag1
(g8
g3
NtRp2598
(dp2599
g11
g12
sg13
S'SWGamekeys MT'
p2600
sg15
I400
sg16
g12
sg17
g12
sg18
Vc:\u005cwindows\u005cfonts\u005cswkeys1.ttf
p2601
sg20
g21
sbag1
(g8
g3
NtRp2602
(dp2603
g11
g12
sg13
S'Century Gothic'
p2604
sg15
I700
sg16
g12
sg17
g12
sg18
VC:\u005cWindows\u005cFonts\u005cGOTHICB.TTF
p2605
sg20
g21
sbag1
(g8
g3
NtRp2606
(dp2607
g11
g69
sg13
S'Gentium Basic'
p2608
sg15
I400
sg16
g12
sg17
g12
sg18
Vc:\u005cwindows\u005cfonts\u005cgenbasi.ttf
p2609
sg20
g21
sbag1
(g8
g3
NtRp2610
(dp2611
g11
g12
sg13
S'Segoe Script'
p2612
sg15
I400
sg16
g12
sg17
g12
sg18
VC:\u005cWindows\u005cFonts\u005csegoesc.ttf
p2613
sg20
g21
sbag1
(g8
g3
NtRp2614
(dp2615
g11
g12
sg13
S'WenQuanYi Micro Hei'
p2616
sg15
I400
sg16
g12
sg17
g12
sg18
VC:\u005cWindows\u005cFonts\u005cWenQuanYi Micro Hei.ttf
p2617
sg20
g21
sbag1
(g8
g3
NtRp2618
(dp2619
g11
g12
sg13
S'Georgia'
p2620
sg15
I400
sg16
g12
sg17
g12
sg18
VC:\u005cWindows\u005cFonts\u005cgeorgia.ttf
p2621
sg20
g21
sbag1
(g8
g3
NtRp2622
(dp2623
g11
g12
sg13
S'Niagara Solid'
p2624
sg15
I400
sg16
g12
sg17
g12
sg18
Vc:\u005cwindows\u005cfonts\u005cniagsol.ttf
p2625
sg20
g21
sbag1
(g8
g3
NtRp2626
(dp2627
g11
g12
sg13
S'jsMath-cmex10'
p2628
sg15
I400
sg16
g12
sg17
g12
sg18
VC:\u005cWindows\u005cFonts\u005cjsMath-cmex10.ttf
p2629
sg20
g21
sbag1
(g8
g3
NtRp2630
(dp2631
g11
g12
sg13
S'Linux Biolinum G'
p2632
sg15
I400
sg16
g12
sg17
g12
sg18
VC:\u005cWindows\u005cFonts\u005cLinBiolinum_R_G.ttf
p2633
sg20
g21
sbag1
(g8
g3
NtRp2634
(dp2635
g11
g69
sg13
S'Rockwell'
p2636
sg15
I700
sg16
g12
sg17
g12
sg18
Vc:\u005cwindows\u005cfonts\u005crockbi.ttf
p2637
sg20
g21
sbag1
(g8
g3
NtRp2638
(dp2639
g11
g12
sg13
S'Perpetua Titling MT'
p2640
sg15
I200
sg16
g12
sg17
g12
sg18
VC:\u005cWindows\u005cFonts\u005cPERTILI.TTF
p2641
sg20
g21
sbag1
(g8
g3
NtRp2642
(dp2643
g11
g12
sg13
S'STZhongsong'
p2644
sg15
I400
sg16
g12
sg17
g12
sg18
VC:\u005cWindows\u005cFonts\u005cSTZHONGS.TTF
p2645
sg20
g21
sbag1
(g8
g3
NtRp2646
(dp2647
g11
g12
sg13
S'Elephant'
p2648
sg15
I400
sg16
g12
sg17
g12
sg18
VC:\u005cWindows\u005cFonts\u005cELEPHNT.TTF
p2649
sg20
g21
sbag1
(g8
g3
NtRp2650
(dp2651
g11
g69
sg13
S'Rockwell'
p2652
sg15
I400
sg16
g12
sg17
g12
sg18
VC:\u005cWindows\u005cFonts\u005cROCKI.TTF
p2653
sg20
g21
sbag1
(g8
g3
NtRp2654
(dp2655
g11
g12
sg13
S'OCR A Extended'
p2656
sg15
I400
sg16
g12
sg17
g12
sg18
VC:\u005cWindows\u005cFonts\u005cOCRAEXT.TTF
p2657
sg20
g21
sbag1
(g8
g3
NtRp2658
(dp2659
g11
g12
sg13
S'Constantia'
p2660
sg15
I700
sg16
g12
sg17
g12
sg18
VC:\u005cWindows\u005cFonts\u005cCONSTANB.TTF
p2661
sg20
g21
sbag1
(g8
g3
NtRp2662
(dp2663
g11
g69
sg13
S'Bell MT'
p2664
sg15
I400
sg16
g12
sg17
g12
sg18
VC:\u005cWindows\u005cFonts\u005cBELLI.TTF
p2665
sg20
g21
sbag1
(g8
g3
NtRp2666
(dp2667
g11
g12
sg13
S'Eras Bold ITC'
p2668
sg15
I700
sg16
g12
sg17
g12
sg18
VC:\u005cWindows\u005cFonts\u005cERASBD.TTF
p2669
sg20
g21
sbag1
(g8
g3
NtRp2670
(dp2671
g11
g12
sg13
S'AngsanaUPC'
p2672
sg15
I700
sg16
g12
sg17
g12
sg18
VC:\u005cWindows\u005cFonts\u005cangsaub.ttf
p2673
sg20
g21
sbag1
(g8
g3
NtRp2674
(dp2675
g11
g69
sg13
S'Liberation Sans'
p2676
sg15
I400
sg16
g12
sg17
g12
sg18
Vc:\u005cwindows\u005cfonts\u005cliberationsans-italic.ttf
p2677
sg20
g21
sbag1
(g8
g3
NtRp2678
(dp2679
g11
g69
sg13
S'Garamond'
p2680
sg15
I400
sg16
g12
sg17
g12
sg18
VC:\u005cWindows\u005cFonts\u005cGARAIT.TTF
p2681
sg20
g21
sbag1
(g8
g3
NtRp2682
(dp2683
g11
g12
sg13
S'Lao UI'
p2684
sg15
I700
sg16
g12
sg17
g12
sg18
VC:\u005cWindows\u005cFonts\u005cLaoUIb.ttf
p2685
sg20
g21
sbag1
(g8
g3
NtRp2686
(dp2687
g11
g12
sg13
S'Andalus'
p2688
sg15
I400
sg16
g12
sg17
g12
sg18
Vc:\u005cwindows\u005cfonts\u005candlso.ttf
p2689
sg20
g21
sbag1
(g8
g3
NtRp2690
(dp2691
g11
g12
sg13
S'Algerian'
p2692
sg15
I400
sg16
g12
sg17
g12
sg18
Vc:\u005cwindows\u005cfonts\u005calger.ttf
p2693
sg20
g21
sbag1
(g8
g3
NtRp2694
(dp2695
g11
g12
sg13
S'Matura MT Script Capitals'
p2696
sg15
I400
sg16
g12
sg17
g12
sg18
Vc:\u005cwindows\u005cfonts\u005cmaturasc.ttf
p2697
sg20
g21
sbag1
(g8
g3
NtRp2698
(dp2699
g11
g69
sg13
S'Source Sans Pro'
p2700
sg15
I400
sg16
g12
sg17
g12
sg18
VC:\u005cWindows\u005cFonts\u005cSourceSansPro-Italic.ttf
p2701
sg20
g21
sbag1
(g8
g3
NtRp2702
(dp2703
g11
g69
sg13
S'CordiaUPC'
p2704
sg15
I400
sg16
g12
sg17
g12
sg18
Vc:\u005cwindows\u005cfonts\u005ccordiaui.ttf
p2705
sg20
g21
sbag1
(g8
g3
NtRp2706
(dp2707
g11
g12
sg13
S'Lucida Sans Typewriter'
p2708
sg15
I400
sg16
g12
sg17
g12
sg18
Vc:\u005cwindows\u005cfonts\u005cltype.ttf
p2709
sg20
g21
sbag1
(g8
g3
NtRp2710
(dp2711
g11
g12
sg13
S'Garamond'
p2712
sg15
I400
sg16
g12
sg17
g12
sg18
VC:\u005cWindows\u005cFonts\u005cGARA.TTF
p2713
sg20
g21
sbag1
(g8
g3
NtRp2714
(dp2715
g11
g12
sg13
S'Franklin Gothic Demi'
p2716
sg15
I600
sg16
g12
sg17
g12
sg18
VC:\u005cWindows\u005cFonts\u005cFRADM.TTF
p2717
sg20
g21
sbag1
(g8
g3
NtRp2718
(dp2719
g11
g69
sg13
S'PT Serif'
p2720
sg15
I700
sg16
g12
sg17
g12
sg18
VC:\u005cWindows\u005cFonts\u005cPT_Serif-Web-BoldItalic.ttf
p2721
sg20
g21
sbag1
(g8
g3
NtRp2722
(dp2723
g11
g12
sg13
S'Palace Script MT'
p2724
sg15
I400
sg16
g12
sg17
g12
sg18
Vc:\u005cwindows\u005cfonts\u005cpalscri.ttf
p2725
sg20
g21
sbag1
(g8
g3
NtRp2726
(dp2727
g11
g12
sg13
S'Century Gothic'
p2728
sg15
I400
sg16
g12
sg17
g12
sg18
Vc:\u005cwindows\u005cfonts\u005cgothic.ttf
p2729
sg20
g21
sbag1
(g8
g3
NtRp2730
(dp2731
g11
g12
sg13
S'Pristina'
p2732
sg15
I400
sg16
g12
sg17
g12
sg18
Vc:\u005cwindows\u005cfonts\u005cpristina.ttf
p2733
sg20
g21
sbag1
(g8
g3
NtRp2734
(dp2735
g11
g12
sg13
S'Shonar Bangla'
p2736
sg15
I700
sg16
g12
sg17
g12
sg18
VC:\u005cWindows\u005cFonts\u005cShonarb.ttf
p2737
sg20
g21
sbag1
(g8
g3
NtRp2738
(dp2739
g11
g12
sg13
S'MV Boli'
p2740
sg15
I400
sg16
g12
sg17
g12
sg18
VC:\u005cWindows\u005cFonts\u005cmvboli.ttf
p2741
sg20
g21
sbag1
(g8
g3
NtRp2742
(dp2743
g11
g12
sg13
S'Segoe WP'
p2744
sg15
I400
sg16
g12
sg17
g12
sg18
VC:\u005cWindows\u005cFonts\u005cSegoeWP-Black.ttf
p2745
sg20
g21
sbag1
(g8
g3
NtRp2746
(dp2747
g11
g12
sg13
S'Webdings'
p2748
sg15
I400
sg16
g12
sg17
g12
sg18
VC:\u005cWindows\u005cFonts\u005cwebdings.ttf
p2749
sg20
g21
sbag1
(g8
g3
NtRp2750
(dp2751
g11
g12
sg13
S'Californian FB'
p2752
sg15
I700
sg16
g12
sg17
g12
sg18
Vc:\u005cwindows\u005cfonts\u005ccalifb.ttf
p2753
sg20
g21
sbag1
(g8
g3
NtRp2754
(dp2755
g11
g12
sg13
S'Showcard Gothic'
p2756
sg15
I400
sg16
g12
sg17
g12
sg18
VC:\u005cWindows\u005cFonts\u005cSHOWG.TTF
p2757
sg20
g21
sbag1
(g8
g3
NtRp2758
(dp2759
g11
g69
sg13
S'Lucida Fax'
p2760
sg15
I400
sg16
g12
sg17
g12
sg18
Vc:\u005cwindows\u005cfonts\u005clfaxi.ttf
p2761
sg20
g21
sbag1
(g8
g3
NtRp2762
(dp2763
g11
g12
sg13
S'Franklin Gothic Heavy'
p2764
sg15
I800
sg16
g12
sg17
g12
sg18
Vc:\u005cwindows\u005cfonts\u005cfrahv.ttf
p2765
sg20
g21
sbag1
(g8
g3
NtRp2766
(dp2767
g11
g12
sg13
S'DejaVu Serif'
p2768
sg15
I400
sg16
g12
sg17
g12
sg18
Vc:\u005cwindows\u005cfonts\u005cdejavuserif.ttf
p2769
sg20
g21
sbag1
(g8
g3
NtRp2770
(dp2771
g11
g12
sg13
S'Niagara Engraved'
p2772
sg15
I400
sg16
g12
sg17
g12
sg18
VC:\u005cWindows\u005cFonts\u005cNIAGENG.TTF
p2773
sg20
g21
sbag1
(g8
g3
NtRp2774
(dp2775
g11
g12
sg13
S'jsMath-cmex10'
p2776
sg15
I400
sg16
g12
sg17
g12
sg18
Vc:\u005cwindows\u005cfonts\u005cjsmath-cmex10.ttf
p2777
sg20
g21
sbag1
(g8
g3
NtRp2778
(dp2779
g11
g12
sg13
S'Symbol'
p2780
sg15
I400
sg16
g12
sg17
g12
sg18
Vc:\u005cwindows\u005cfonts\u005csymbol.ttf
p2781
sg20
g21
sbag1
(g8
g3
NtRp2782
(dp2783
g11
g12
sg13
S'Browallia New'
p2784
sg15
I400
sg16
g12
sg17
g12
sg18
VC:\u005cWindows\u005cFonts\u005cbrowa.ttf
p2785
sg20
g21
sbag1
(g8
g3
NtRp2786
(dp2787
g11
g12
sg13
S'Lao UI'
p2788
sg15
I400
sg16
g12
sg17
g12
sg18
VC:\u005cWindows\u005cFonts\u005cLaoUI.ttf
p2789
sg20
g21
sbag1
(g8
g3
NtRp2790
(dp2791
g11
g69
sg13
S'Gentium Book Basic'
p2792
sg15
I400
sg16
g12
sg17
g12
sg18
VC:\u005cWindows\u005cFonts\u005cGenBkBasI.ttf
p2793
sg20
g21
sbag1
(g8
g3
NtRp2794
(dp2795
g11
g12
sg13
S'Informal Roman'
p2796
sg15
I500
sg16
g12
sg17
g12
sg18
VC:\u005cWindows\u005cFonts\u005cINFROMAN.TTF
p2797
sg20
g21
sbag1
(g8
g3
NtRp2798
(dp2799
g11
g12
sg13
S'Source Code Pro'
p2800
sg15
I400
sg16
g12
sg17
g12
sg18
VC:\u005cWindows\u005cFonts\u005cSourceCodePro-Regular.ttf
p2801
sg20
g21
sbag1
(g8
g3
NtRp2802
(dp2803
g11
g12
sg13
S'jsMath-cmsy10'
p2804
sg15
I400
sg16
g12
sg17
g12
sg18
VC:\u005cWindows\u005cFonts\u005cjsMath-cmsy10.ttf
p2805
sg20
g21
sbag1
(g8
g3
NtRp2806
(dp2807
g11
g12
sg13
S'Vani'
p2808
sg15
I700
sg16
g12
sg17
g12
sg18
Vc:\u005cwindows\u005cfonts\u005cvanib.ttf
p2809
sg20
g21
sbag1
(g8
g3
NtRp2810
(dp2811
g11
g69
sg13
S'Consolas'
p2812
sg15
I400
sg16
g12
sg17
g12
sg18
Vc:\u005cwindows\u005cfonts\u005cconsolai.ttf
p2813
sg20
g21
sbag1
(g8
g3
NtRp2814
(dp2815
g11
g12
sg13
S'MS Reference Specialty'
p2816
sg15
I400
sg16
g12
sg17
g12
sg18
Vc:\u005cwindows\u005cfonts\u005crefspcl.ttf
p2817
sg20
g21
sbag1
(g8
g3
NtRp2818
(dp2819
g11
g69
sg13
S'Goudy Old Style'
p2820
sg15
I400
sg16
g12
sg17
g12
sg18
Vc:\u005cwindows\u005cfonts\u005cgoudosi.ttf
p2821
sg20
g21
sbag1
(g8
g3
NtRp2822
(dp2823
g11
g12
sg13
S'Lucida Bright'
p2824
sg15
I400
sg16
g12
sg17
g12
sg18
Vc:\u005cwindows\u005cfonts\u005clbrite.ttf
p2825
sg20
g21
sbag1
(g8
g3
NtRp2826
(dp2827
g11
g12
sg13
S'Century Schoolbook'
p2828
sg15
I400
sg16
g12
sg17
g12
sg18
VC:\u005cWindows\u005cFonts\u005cCENSCBK.TTF
p2829
sg20
g21
sbag1
(g8
g3
NtRp2830
(dp2831
g11
g12
sg13
S'Freestyle Script'
p2832
sg15
I400
sg16
g12
sg17
g12
sg18
VC:\u005cWindows\u005cFonts\u005cFREESCPT.TTF
p2833
sg20
g21
sbag1
(g8
g3
NtRp2834
(dp2835
g11
g12
sg13
S'Source Sans Pro'
p2836
sg15
I200
sg16
g12
sg17
g12
sg18
Vc:\u005cwindows\u005cfonts\u005csourcesanspro-extralight.ttf
p2837
sg20
g21
sbag1
(g8
g3
NtRp2838
(dp2839
g11
g12
sg13
S'French Script MT'
p2840
sg15
I400
sg16
g12
sg17
g12
sg18
Vc:\u005cwindows\u005cfonts\u005cfrscript.ttf
p2841
sg20
g21
sbag1
(g8
g3
NtRp2842
(dp2843
g11
g12
sg13
S'Rockwell'
p2844
sg15
I400
sg16
g12
sg17
g12
sg18
VC:\u005cWindows\u005cFonts\u005cROCK.TTF
p2845
sg20
g21
sbag1
(g8
g3
NtRp2846
(dp2847
g11
g12
sg13
S'Latha'
p2848
sg15
I700
sg16
g12
sg17
g12
sg18
VC:\u005cWindows\u005cFonts\u005clathab.ttf
p2849
sg20
g21
sbag1
(g8
g3
NtRp2850
(dp2851
g11
g69
sg13
S'Arial'
p2852
sg15
I700
sg16
g267
sg17
g12
sg18
VC:\u005cWindows\u005cFonts\u005cARIALNBI.TTF
p2853
sg20
g21
sbag1
(g8
g3
NtRp2854
(dp2855
g11
g12
sg13
S'Bodoni MT'
p2856
sg15
I900
sg16
g12
sg17
g12
sg18
Vc:\u005cwindows\u005cfonts\u005cbod_blar.ttf
p2857
sg20
g21
sbag1
(g8
g3
NtRp2858
(dp2859
g11
g12
sg13
S'Copperplate Gothic Bold'
p2860
sg15
I700
sg16
g12
sg17
g12
sg18
Vc:\u005cwindows\u005cfonts\u005ccoprgtb.ttf
p2861
sg20
g21
sbag1
(g8
g3
NtRp2862
(dp2863
g11
g12
sg13
S'Corbel'
p2864
sg15
I400
sg16
g12
sg17
g12
sg18
Vc:\u005cwindows\u005cfonts\u005ccorbel.ttf
p2865
sg20
g21
sbag1
(g8
g3
NtRp2866
(dp2867
g11
g69
sg13
S'Goudy Old Style'
p2868
sg15
I400
sg16
g12
sg17
g12
sg18
VC:\u005cWindows\u005cFonts\u005cGOUDOSI.TTF
p2869
sg20
g21
sbag1
(g8
g3
NtRp2870
(dp2871
g11
g12
sg13
S'Harrington'
p2872
sg15
I400
sg16
g12
sg17
g12
sg18
VC:\u005cWindows\u005cFonts\u005cHARNGTON.TTF
p2873
sg20
g21
sbag1
(g8
g3
NtRp2874
(dp2875
g11
g12
sg13
S'STCaiyun'
p2876
sg15
I400
sg16
g12
sg17
g12
sg18
Vc:\u005cwindows\u005cfonts\u005cstcaiyun.ttf
p2877
sg20
g21
sbag1
(g8
g3
NtRp2878
(dp2879
g11
g12
sg13
S'Gill Sans MT Condensed'
p2880
sg15
I400
sg16
g267
sg17
g12
sg18
Vc:\u005cwindows\u005cfonts\u005cgilc____.ttf
p2881
sg20
g21
sbag1
(g8
g3
NtRp2882
(dp2883
g11
g69
sg13
S'Bodoni MT'
p2884
sg15
I700
sg16
g12
sg17
g12
sg18
VC:\u005cWindows\u005cFonts\u005cBOD_BI.TTF
p2885
sg20
g21
sbag1
(g8
g3
NtRp2886
(dp2887
g11
g12
sg13
S'Parchment'
p2888
sg15
I400
sg16
g12
sg17
g12
sg18
VC:\u005cWindows\u005cFonts\u005cPARCHM.TTF
p2889
sg20
g21
sbag1
(g8
g3
NtRp2890
(dp2891
g11
g12
sg13
S'Mistral'
p2892
sg15
I400
sg16
g12
sg17
g12
sg18
Vc:\u005cwindows\u005cfonts\u005cmistral.ttf
p2893
sg20
g21
sbag1
(g8
g3
NtRp2894
(dp2895
g11
g12
sg13
S'Rockwell Condensed'
p2896
sg15
I400
sg16
g267
sg17
g12
sg18
Vc:\u005cwindows\u005cfonts\u005crocc____.ttf
p2897
sg20
g21
sbag1
(g8
g3
NtRp2898
(dp2899
g11
g12
sg13
S'CordiaUPC'
p2900
sg15
I400
sg16
g12
sg17
g12
sg18
Vc:\u005cwindows\u005cfonts\u005ccordiau.ttf
p2901
sg20
g21
sbag1
(g8
g3
NtRp2902
(dp2903
g11
g69
sg13
S'Vivaldi'
p2904
sg15
I400
sg16
g12
sg17
g12
sg18
VC:\u005cWindows\u005cFonts\u005cVIVALDII.TTF
p2905
sg20
g21
sbag1
(g8
g3
NtRp2906
(dp2907
g11
g12
sg13
S'Bookman Old Style'
p2908
sg15
I400
sg16
g12
sg17
g12
sg18
VC:\u005cWindows\u005cFonts\u005cBOOKOS.TTF
p2909
sg20
g21
sbag1
(g8
g3
NtRp2910
(dp2911
g11
g69
sg13
S'Liberation Serif'
p2912
sg15
I700
sg16
g12
sg17
g12
sg18
Vc:\u005cwindows\u005cfonts\u005cliberationserif-bolditalic.ttf
p2913
sg20
g21
sbag1
(g8
g3
NtRp2914
(dp2915
g11
g12
sg13
S'Open Sans'
p2916
sg15
I700
sg16
g12
sg17
g12
sg18
VC:\u005cWindows\u005cFonts\u005cOpenSans-Bold.ttf
p2917
sg20
g21
sbag1
(g8
g3
NtRp2918
(dp2919
g11
g12
sg13
S'Source Sans Pro'
p2920
sg15
I400
sg16
g12
sg17
g12
sg18
VC:\u005cWindows\u005cFonts\u005cSourceSansPro-Regular.ttf
p2921
sg20
g21
sbag1
(g8
g3
NtRp2922
(dp2923
g11
g12
sg13
S'Source Code Pro'
p2924
sg15
I700
sg16
g12
sg17
g12
sg18
VC:\u005cWindows\u005cFonts\u005cSourceCodePro-Bold.ttf
p2925
sg20
g21
sbag1
(g8
g3
NtRp2926
(dp2927
g11
g69
sg13
S'Corbel'
p2928
sg15
I700
sg16
g12
sg17
g12
sg18
Vc:\u005cwindows\u005cfonts\u005ccorbelz.ttf
p2929
sg20
g21
sbag1
(g8
g3
NtRp2930
(dp2931
g11
g12
sg13
S'Gentium Basic'
p2932
sg15
I700
sg16
g12
sg17
g12
sg18
VC:\u005cWindows\u005cFonts\u005cGenBasB.ttf
p2933
sg20
g21
sbag1
(g8
g3
NtRp2934
(dp2935
g11
g12
sg13
S'STLiti'
p2936
sg15
I400
sg16
g12
sg17
g12
sg18
Vc:\u005cwindows\u005cfonts\u005cstliti.ttf
p2937
sg20
g21
sbag1
(g8
g3
NtRp2938
(dp2939
g11
g12
sg13
S'Tahoma'
p2940
sg15
I400
sg16
g12
sg17
g12
sg18
VC:\u005cWindows\u005cFonts\u005ctahoma.ttf
p2941
sg20
g21
sbag1
(g8
g3
NtRp2942
(dp2943
g11
g12
sg13
S'Magneto'
p2944
sg15
I700
sg16
g12
sg17
g12
sg18
VC:\u005cWindows\u005cFonts\u005cMAGNETOB.TTF
p2945
sg20
g21
sbag1
(g8
g3
NtRp2946
(dp2947
g11
g69
sg13
S'Lucida Handwriting'
p2948
sg15
I400
sg16
g12
sg17
g12
sg18
VC:\u005cWindows\u005cFonts\u005cLHANDW.TTF
p2949
sg20
g21
sbag1
(g8
g3
NtRp2950
(dp2951
g11
g12
sg13
S'Linux Biolinum G'
p2952
sg15
I700
sg16
g12
sg17
g12
sg18
VC:\u005cWindows\u005cFonts\u005cLinBiolinum_RB_G.ttf
p2953
sg20
g21
sbag1
(g8
g3
NtRp2954
(dp2955
g11
g12
sg13
S'DejaVu Serif'
p2956
sg15
I700
sg16
g12
sg17
g12
sg18
VC:\u005cWindows\u005cFonts\u005cDejaVuSerif-Bold.ttf
p2957
sg20
g21
sbag1
(g8
g3
NtRp2958
(dp2959
g11
g12
sg13
S'Tw Cen MT Condensed'
p2960
sg15
I400
sg16
g267
sg17
g12
sg18
Vc:\u005cwindows\u005cfonts\u005ctccm____.ttf
p2961
sg20
g21
sbag1
(g8
g3
NtRp2962
(dp2963
g11
g69
sg13
S'Candara'
p2964
sg15
I400
sg16
g12
sg17
g12
sg18
Vc:\u005cwindows\u005cfonts\u005ccandarai.ttf
p2965
sg20
g21
sbag1
(g8
g3
NtRp2966
(dp2967
g11
g69
sg13
S'Consolas'
p2968
sg15
I700
sg16
g12
sg17
g12
sg18
VC:\u005cWindows\u005cFonts\u005cCONSOLAZ.TTF
p2969
sg20
g21
sbag1
(g8
g3
NtRp2970
(dp2971
g11
g12
sg13
S'Linux Libertine G'
p2972
sg15
I700
sg16
g12
sg17
g12
sg18
VC:\u005cWindows\u005cFonts\u005cLinLibertine_RZ_G.ttf
p2973
sg20
g21
sbag1
(g8
g3
NtRp2974
(dp2975
g11
g69
sg13
S'Angsana New'
p2976
sg15
I700
sg16
g12
sg17
g12
sg18
Vc:\u005cwindows\u005cfonts\u005cangsaz.ttf
p2977
sg20
g21
sbag1
(g8
g3
NtRp2978
(dp2979
g11
g12
sg13
S'Linux Libertine G'
p2980
sg15
I400
sg16
g12
sg17
g12
sg18
Vc:\u005cwindows\u005cfonts\u005clinlibertine_r_g.ttf
p2981
sg20
g21
sbag1
(g8
g3
NtRp2982
(dp2983
g11
g12
sg13
S'Imprint MT Shadow'
p2984
sg15
I400
sg16
g12
sg17
g12
sg18
VC:\u005cWindows\u005cFonts\u005cIMPRISHA.TTF
p2985
sg20
g21
sbag1
(g8
g3
NtRp2986
(dp2987
g11
g12
sg13
S'Gill Sans MT'
p2988
sg15
I400
sg16
g12
sg17
g12
sg18
VC:\u005cWindows\u005cFonts\u005cGIL_____.TTF
p2989
sg20
g21
sbag1
(g8
g3
NtRp2990
(dp2991
g11
g69
sg13
S'Carlito'
p2992
sg15
I400
sg16
g12
sg17
g12
sg18
Vc:\u005cwindows\u005cfonts\u005ccarlito-italic.ttf
p2993
sg20
g21
sbag1
(g8
g3
NtRp2994
(dp2995
g11
g12
sg13
S'SamsungImaginationBold'
p2996
sg15
I700
sg16
g12
sg17
g12
sg18
VC:\u005cWindows\u005cFonts\u005cSamsungImaginationBold.otf
p2997
sg20
g21
sbag1
(g8
g3
NtRp2998
(dp2999
g11
g12
sg13
S'Footlight MT Light'
p3000
sg15
I200
sg16
g12
sg17
g12
sg18
VC:\u005cWindows\u005cFonts\u005cFTLTLT.TTF
p3001
sg20
g21
sbag1
(g8
g3
NtRp3002
(dp3003
g11
g12
sg13
S'Century Gothic'
p3004
sg15
I700
sg16
g12
sg17
g12
sg18
Vc:\u005cwindows\u005cfonts\u005cgothicb.ttf
p3005
sg20
g21
sbag1
(g8
g3
NtRp3006
(dp3007
g11
g69
sg13
S'Corbel'
p3008
sg15
I400
sg16
g12
sg17
g12
sg18
Vc:\u005cwindows\u005cfonts\u005ccorbeli.ttf
p3009
sg20
g21
sbag1
(g8
g3
NtRp3010
(dp3011
g11
g69
sg13
S'Brush Script MT'
p3012
sg15
I400
sg16
g12
sg17
g12
sg18
Vc:\u005cwindows\u005cfonts\u005cbrushsci.ttf
p3013
sg20
g21
sbag1
(g8
g3
NtRp3014
(dp3015
g11
g69
sg13
S'Vivaldi'
p3016
sg15
I400
sg16
g12
sg17
g12
sg18
Vc:\u005cwindows\u005cfonts\u005cvivaldii.ttf
p3017
sg20
g21
sbag1
(g8
g3
NtRp3018
(dp3019
g11
g12
sg13
S'Source Sans Pro'
p3020
sg15
I200
sg16
g12
sg17
g12
sg18
Vc:\u005cwindows\u005cfonts\u005csourcesanspro-light.ttf
p3021
sg20
g21
sbag1
(g8
g3
NtRp3022
(dp3023
g11
g12
sg13
S'Buxton Sketch'
p3024
sg15
I400
sg16
g12
sg17
g12
sg18
Vc:\u005cwindows\u005cfonts\u005cbuxtonsketch.ttf
p3025
sg20
g21
sbag1
(g8
g3
NtRp3026
(dp3027
g11
g12
sg13
S'Bookman Old Style'
p3028
sg15
I400
sg16
g12
sg17
g12
sg18
Vc:\u005cwindows\u005cfonts\u005cbookos.ttf
p3029
sg20
g21
sbag1
(g8
g3
NtRp3030
(dp3031
g11
g69
sg13
S'Californian FB'
p3032
sg15
I400
sg16
g12
sg17
g12
sg18
VC:\u005cWindows\u005cFonts\u005cCALIFI.TTF
p3033
sg20
g21
sbag1
(g8
g3
NtRp3034
(dp3035
g11
g12
sg13
S'Liberation Sans'
p3036
sg15
I700
sg16
g12
sg17
g12
sg18
VC:\u005cWindows\u005cFonts\u005cLiberationSans-Bold.ttf
p3037
sg20
g21
sbag1
(g8
g3
NtRp3038
(dp3039
g11
g12
sg13
S'Berlin Sans FB Demi'
p3040
sg15
I700
sg16
g12
sg17
g12
sg18
Vc:\u005cwindows\u005cfonts\u005cbrlnsdb.ttf
p3041
sg20
g21
sbag1
(g8
g3
NtRp3042
(dp3043
g11
g12
sg13
S'Perpetua'
p3044
sg15
I700
sg16
g12
sg17
g12
sg18
Vc:\u005cwindows\u005cfonts\u005cperb____.ttf
p3045
sg20
g21
sbag1
(g8
g3
NtRp3046
(dp3047
g11
g69
sg13
S'Century Schoolbook'
p3048
sg15
I700
sg16
g12
sg17
g12
sg18
Vc:\u005cwindows\u005cfonts\u005cschlbkbi.ttf
p3049
sg20
g21
sbag1
(g8
g3
NtRp3050
(dp3051
g11
g12
sg13
S'Rockwell Condensed'
p3052
sg15
I700
sg16
g267
sg17
g12
sg18
VC:\u005cWindows\u005cFonts\u005cROCCB___.TTF
p3053
sg20
g21
sbag1
(g8
g3
NtRp3054
(dp3055
g11
g69
sg13
S'Source Sans Pro'
p3056
sg15
I900
sg16
g12
sg17
g12
sg18
VC:\u005cWindows\u005cFonts\u005cSourceSansPro-BlackIt.ttf
p3057
sg20
g21
sbag1
(g8
g3
NtRp3058
(dp3059
g11
g69
sg13
S'Source Sans Pro'
p3060
sg15
I700
sg16
g12
sg17
g12
sg18
VC:\u005cWindows\u005cFonts\u005cSourceSansPro-SemiboldIt.ttf
p3061
sg20
g21
sbag1
(g8
g3
NtRp3062
(dp3063
g11
g69
sg13
S'Rage Italic'
p3064
sg15
I400
sg16
g12
sg17
g12
sg18
Vc:\u005cwindows\u005cfonts\u005crage.ttf
p3065
sg20
g21
sbag1
(g8
g3
NtRp3066
(dp3067
g11
g69
sg13
S'Arial'
p3068
sg15
I700
sg16
g267
sg17
g12
sg18
Vc:\u005cwindows\u005cfonts\u005carialnbi.ttf
p3069
sg20
g21
sbag1
(g8
g3
NtRp3070
(dp3071
g11
g12
sg13
S'Playbill'
p3072
sg15
I400
sg16
g12
sg17
g12
sg18
VC:\u005cWindows\u005cFonts\u005cPLAYBILL.TTF
p3073
sg20
g21
sbag1
(g8
g3
NtRp3074
(dp3075
g11
g12
sg13
S'Bodoni MT'
p3076
sg15
I700
sg16
g267
sg17
g12
sg18
Vc:\u005cwindows\u005cfonts\u005cbod_cb.ttf
p3077
sg20
g21
sbag1
(g8
g3
NtRp3078
(dp3079
g11
g12
sg13
S'DejaVu Sans'
p3080
sg15
I400
sg16
g267
sg17
g12
sg18
VC:\u005cWindows\u005cFonts\u005cDejaVuSansCondensed.ttf
p3081
sg20
g21
sbag1
(g8
g3
NtRp3082
(dp3083
g11
g12
sg13
S'Parchment'
p3084
sg15
I400
sg16
g12
sg17
g12
sg18
Vc:\u005cwindows\u005cfonts\u005cparchm.ttf
p3085
sg20
g21
sbag1
(g8
g3
NtRp3086
(dp3087
g11
g69
sg13
S'Harlow Solid Italic'
p3088
sg15
I400
sg16
g12
sg17
g12
sg18
Vc:\u005cwindows\u005cfonts\u005charlowsi.ttf
p3089
sg20
g21
sbag1
(g8
g3
NtRp3090
(dp3091
g11
g12
sg13
S'Poor Richard'
p3092
sg15
I400
sg16
g12
sg17
g12
sg18
VC:\u005cWindows\u005cFonts\u005cPOORICH.TTF
p3093
sg20
g21
sbag1
(g8
g3
NtRp3094
(dp3095
g11
g12
sg13
S'Edwardian Script ITC'
p3096
sg15
I400
sg16
g12
sg17
g12
sg18
VC:\u005cWindows\u005cFonts\u005cITCEDSCR.TTF
p3097
sg20
g21
sbag1
(g8
g3
NtRp3098
(dp3099
g11
g12
sg13
S'Bodoni MT'
p3100
sg15
I400
sg16
g267
sg17
g12
sg18
VC:\u005cWindows\u005cFonts\u005cBOD_CR.TTF
p3101
sg20
g21
sbag1
(g8
g3
NtRp3102
(dp3103
g11
g12
sg13
S'Showcard Gothic'
p3104
sg15
I400
sg16
g12
sg17
g12
sg18
Vc:\u005cwindows\u005cfonts\u005cshowg.ttf
p3105
sg20
g21
sbag1
(g8
g3
NtRp3106
(dp3107
g11
g69
sg13
S'Arial'
p3108
sg15
I400
sg16
g267
sg17
g12
sg18
Vc:\u005cwindows\u005cfonts\u005carialni.ttf
p3109
sg20
g21
sbag1
(g8
g3
NtRp3110
(dp3111
g11
g12
sg13
S'STCaiyun'
p3112
sg15
I400
sg16
g12
sg17
g12
sg18
VC:\u005cWindows\u005cFonts\u005cSTCAIYUN.TTF
p3113
sg20
g21
sbag1
(g8
g3
NtRp3114
(dp3115
g11
g40
sg13
S'DejaVu Sans'
p3116
sg15
I400
sg16
g12
sg17
g12
sg18
VC:\u005cWindows\u005cFonts\u005cDejaVuSans-Oblique.ttf
p3117
sg20
g21
sbag1
(g8
g3
NtRp3118
(dp3119
g11
g69
sg13
S'Lucida Sans'
p3120
sg15
I700
sg16
g12
sg17
g12
sg18
VC:\u005cWindows\u005cFonts\u005cLSANSDI.TTF
p3121
sg20
g21
sbag1
(g8
g3
NtRp3122
(dp3123
g11
g69
sg13
S'Century Gothic'
p3124
sg15
I400
sg16
g12
sg17
g12
sg18
Vc:\u005cwindows\u005cfonts\u005cgothici.ttf
p3125
sg20
g21
sbag1
(g8
g3
NtRp3126
(dp3127
g11
g12
sg13
S'Source Sans Pro'
p3128
sg15
I200
sg16
g12
sg17
g12
sg18
VC:\u005cWindows\u005cFonts\u005cSourceSansPro-Light.ttf
p3129
sg20
g21
sbag1
(g8
g3
NtRp3130
(dp3131
g11
g12
sg13
S'Traditional Arabic'
p3132
sg15
I400
sg16
g12
sg17
g12
sg18
VC:\u005cWindows\u005cFonts\u005ctrado.ttf
p3133
sg20
g21
sbag1
(g8
g3
NtRp3134
(dp3135
g11
g69
sg13
S'Cambria'
p3136
sg15
I400
sg16
g12
sg17
g12
sg18
VC:\u005cWindows\u005cFonts\u005cCAMBRIAI.TTF
p3137
sg20
g21
sbag1
(g8
g3
NtRp3138
(dp3139
g11
g12
sg13
S'Eras Demi ITC'
p3140
sg15
I600
sg16
g12
sg17
g12
sg18
Vc:\u005cwindows\u005cfonts\u005cerasdemi.ttf
p3141
sg20
g21
sbag1
(g8
g3
NtRp3142
(dp3143
g11
g12
sg13
S'Source Code Pro'
p3144
sg15
I700
sg16
g12
sg17
g12
sg18
Vc:\u005cwindows\u005cfonts\u005csourcecodepro-semibold.ttf
p3145
sg20
g21
sbag1
(g8
g3
NtRp3146
(dp3147
g11
g12
sg13
S'DejaVu Sans'
p3148
sg15
I700
sg16
g12
sg17
g12
sg18
Vc:\u005cwindows\u005cfonts\u005cdejavusans-bold.ttf
p3149
sg20
g21
sbag1
(g8
g3
NtRp3150
(dp3151
g11
g69
sg13
S'DejaVu Serif'
p3152
sg15
I700
sg16
g12
sg17
g12
sg18
VC:\u005cWindows\u005cFonts\u005cDejaVuSerif-BoldItalic.ttf
p3153
sg20
g21
sbag1
(g8
g3
NtRp3154
(dp3155
g11
g12
sg13
S'Eras Demi ITC'
p3156
sg15
I600
sg16
g12
sg17
g12
sg18
VC:\u005cWindows\u005cFonts\u005cERASDEMI.TTF
p3157
sg20
g21
sbag1
(g8
g3
NtRp3158
(dp3159
g11
g69
sg13
S'DejaVu Serif'
p3160
sg15
I400
sg16
g267
sg17
g12
sg18
VC:\u005cWindows\u005cFonts\u005cDejaVuSerifCondensed-Italic.ttf
p3161
sg20
g21
sbag1
(g8
g3
NtRp3162
(dp3163
g11
g40
sg13
S'DejaVu Sans'
p3164
sg15
I700
sg16
g12
sg17
g12
sg18
Vc:\u005cwindows\u005cfonts\u005cdejavusans-boldoblique.ttf
p3165
sg20
g21
sbag1
(g8
g3
NtRp3166
(dp3167
g11
g12
sg13
S'Lao UI'
p3168
sg15
I700
sg16
g12
sg17
g12
sg18
Vc:\u005cwindows\u005cfonts\u005claouib.ttf
p3169
sg20
g21
sbag1
(g8
g3
NtRp3170
(dp3171
g11
g12
sg13
S'Lucida Bright'
p3172
sg15
I400
sg16
g12
sg17
g12
sg18
VC:\u005cWindows\u005cFonts\u005cLBRITE.TTF
p3173
sg20
g21
sbag1
(g8
g3
NtRp3174
(dp3175
g11
g12
sg13
S'Microsoft MHei'
p3176
sg15
I400
sg16
g12
sg17
g12
sg18
Vc:\u005cwindows\u005cfonts\u005cmsmhei.ttf
p3177
sg20
g21
sbag1
(g8
g3
NtRp3178
(dp3179
g11
g12
sg13
S'Palatino Linotype'
p3180
sg15
I400
sg16
g12
sg17
g12
sg18
Vc:\u005cwindows\u005cfonts\u005cpala.ttf
p3181
sg20
g21
sbag1
(g8
g3
NtRp3182
(dp3183
g11
g12
sg13
S'DejaVu Serif'
p3184
sg15
I700
sg16
g267
sg17
g12
sg18
Vc:\u005cwindows\u005cfonts\u005cdejavuserifcondensed-bold.ttf
p3185
sg20
g21
sbag1
(g8
g3
NtRp3186
(dp3187
g11
g12
sg13
S'Agency FB'
p3188
sg15
I400
sg16
g12
sg17
g12
sg18
VC:\u005cWindows\u005cFonts\u005cAGENCYR.TTF
p3189
sg20
g21
sbag1
(g8
g3
NtRp3190
(dp3191
g11
g12
sg13
S'STXingkai'
p3192
sg15
I400
sg16
g12
sg17
g12
sg18
Vc:\u005cwindows\u005cfonts\u005cstxingka.ttf
p3193
sg20
g21
sbag1
(g8
g3
NtRp3194
(dp3195
g11
g12
sg13
S'Rockwell Extra Bold'
p3196
sg15
I700
sg16
g12
sg17
g12
sg18
VC:\u005cWindows\u005cFonts\u005cROCKEB.TTF
p3197
sg20
g21
sbag1
(g8
g3
NtRp3198
(dp3199
g11
g12
sg13
S'Goudy Old Style'
p3200
sg15
I400
sg16
g12
sg17
g12
sg18
Vc:\u005cwindows\u005cfonts\u005cgoudos.ttf
p3201
sg20
g21
sbag1
(g8
g3
NtRp3202
(dp3203
g11
g12
sg13
S'Tw Cen MT Condensed Extra Bold'
p3204
sg15
I700
sg16
g267
sg17
g12
sg18
Vc:\u005cwindows\u005cfonts\u005ctcceb.ttf
p3205
sg20
g21
sbag1
(g8
g3
NtRp3206
(dp3207
g11
g12
sg13
S'Bodoni MT'
p3208
sg15
I700
sg16
g12
sg17
g12
sg18
Vc:\u005cwindows\u005cfonts\u005cbod_b.ttf
p3209
sg20
g21
sbag1
(g8
g3
NtRp3210
(dp3211
g11
g12
sg13
S'PT Serif'
p3212
sg15
I400
sg16
g12
sg17
g12
sg18
VC:\u005cWindows\u005cFonts\u005cPT_Serif-Web-Regular.ttf
p3213
sg20
g21
sbag1
(g8
g3
NtRp3214
(dp3215
g11
g12
sg13
S'Kunstler Script'
p3216
sg15
I400
sg16
g12
sg17
g12
sg18
Vc:\u005cwindows\u005cfonts\u005ckunstler.ttf
p3217
sg20
g21
sbag1
(g8
g3
NtRp3218
(dp3219
g11
g12
sg13
S'Arial Unicode MS'
p3220
sg15
I400
sg16
g12
sg17
g12
sg18
VC:\u005cWindows\u005cFonts\u005cARIALUNI.TTF
p3221
sg20
g21
sbag1
(g8
g3
NtRp3222
(dp3223
g11
g12
sg13
S'Algerian'
p3224
sg15
I400
sg16
g12
sg17
g12
sg18
VC:\u005cWindows\u005cFonts\u005cALGER.TTF
p3225
sg20
g21
sbag1
(g8
g3
NtRp3226
(dp3227
g11
g12
sg13
S'Rod'
p3228
sg15
I400
sg16
g12
sg17
g12
sg18
Vc:\u005cwindows\u005cfonts\u005crod.ttf
p3229
sg20
g21
sbag1
(g8
g3
NtRp3230
(dp3231
g11
g12
sg13
S'Segoe UI Symbol'
p3232
sg15
I400
sg16
g12
sg17
g12
sg18
Vc:\u005cwindows\u005cfonts\u005cseguisym.ttf
p3233
sg20
g21
sbag1
(g8
g3
NtRp3234
(dp3235
g11
g12
sg13
S'Bodoni MT'
p3236
sg15
I900
sg16
g12
sg17
g12
sg18
VC:\u005cWindows\u005cFonts\u005cBOD_BLAR.TTF
p3237
sg20
g21
sbag1
(g8
g3
NtRp3238
(dp3239
g11
g12
sg13
S'Snap ITC'
p3240
sg15
I400
sg16
g12
sg17
g12
sg18
Vc:\u005cwindows\u005cfonts\u005csnap____.ttf
p3241
sg20
g21
sbag1
(g8
g3
NtRp3242
(dp3243
g11
g12
sg13
S'SamsungImagination'
p3244
sg15
I400
sg16
g12
sg17
g12
sg18
VC:\u005cWindows\u005cFonts\u005cSamsungImagination.otf
p3245
sg20
g21
sbag1
(g8
g3
NtRp3246
(dp3247
g11
g69
sg13
S'Candara'
p3248
sg15
I700
sg16
g12
sg17
g12
sg18
Vc:\u005cwindows\u005cfonts\u005ccandaraz.ttf
p3249
sg20
g21
sbag1
(g8
g3
NtRp3250
(dp3251
g11
g12
sg13
S'Agency FB'
p3252
sg15
I400
sg16
g12
sg17
g12
sg18
Vc:\u005cwindows\u005cfonts\u005cagencyr.ttf
p3253
sg20
g21
sbag1
(g8
g3
NtRp3254
(dp3255
g11
g12
sg13
S'Edwardian Script ITC'
p3256
sg15
I400
sg16
g12
sg17
g12
sg18
Vc:\u005cwindows\u005cfonts\u005citcedscr.ttf
p3257
sg20
g21
sbag1
(g8
g3
NtRp3258
(dp3259
g11
g69
sg13
S'High Tower Text'
p3260
sg15
I400
sg16
g12
sg17
g12
sg18
VC:\u005cWindows\u005cFonts\u005cHTOWERTI.TTF
p3261
sg20
g21
sbag1
(g8
g3
NtRp3262
(dp3263
g11
g69
sg13
S'Century Schoolbook'
p3264
sg15
I400
sg16
g12
sg17
g12
sg18
VC:\u005cWindows\u005cFonts\u005cSCHLBKI.TTF
p3265
sg20
g21
sbag1
(g8
g3
NtRp3266
(dp3267
g11
g12
sg13
S'MT Extra'
p3268
sg15
I400
sg16
g12
sg17
g12
sg18
Vc:\u005cprogram files (x86)\u005ccommon files\u005cmicrosoft shared\u005cequation\u005cmtextra.ttf
p3269
sg20
g21
sbag1
(g8
g3
NtRp3270
(dp3271
g11
g12
sg13
S'Candara'
p3272
sg15
I400
sg16
g12
sg17
g12
sg18
VC:\u005cWindows\u005cFonts\u005cCANDARA.TTF
p3273
sg20
g21
sbag1
(g8
g3
NtRp3274
(dp3275
g11
g12
sg13
S'WenQuanYi Micro Hei'
p3276
sg15
I400
sg16
g12
sg17
g12
sg18
Vc:\u005cwindows\u005cfonts\u005cwenquanyi micro hei.ttf
p3277
sg20
g21
sbag1
(g8
g3
NtRp3278
(dp3279
g11
g69
sg13
S'Cambria'
p3280
sg15
I700
sg16
g12
sg17
g12
sg18
Vc:\u005cwindows\u005cfonts\u005ccambriaz.ttf
p3281
sg20
g21
sbag1
(g8
g3
NtRp3282
(dp3283
g11
g69
sg13
S'Source Sans Pro'
p3284
sg15
I900
sg16
g12
sg17
g12
sg18
Vc:\u005cwindows\u005cfonts\u005csourcesanspro-blackit.ttf
p3285
sg20
g21
sbag1
(g8
g3
NtRp3286
(dp3287
g11
g12
sg13
S'Goudy Stout'
p3288
sg15
I400
sg16
g12
sg17
g12
sg18
VC:\u005cWindows\u005cFonts\u005cGOUDYSTO.TTF
p3289
sg20
g21
sbag1
(g8
g3
NtRp3290
(dp3291
g11
g12
sg13
S'Khmer UI'
p3292
sg15
I700
sg16
g12
sg17
g12
sg18
VC:\u005cWindows\u005cFonts\u005cKhmerUIb.ttf
p3293
sg20
g21
sbag1
(g8
g3
NtRp3294
(dp3295
g11
g12
sg13
S'FangSong'
p3296
sg15
I400
sg16
g12
sg17
g12
sg18
Vc:\u005cwindows\u005cfonts\u005csimfang.ttf
p3297
sg20
g21
sbag1
(g8
g3
NtRp3298
(dp3299
g11
g12
sg13
S'Source Code Pro'
p3300
sg15
I700
sg16
g12
sg17
g12
sg18
VC:\u005cWindows\u005cFonts\u005cSourceCodePro-Semibold.ttf
p3301
sg20
g21
sbag1
(g8
g3
NtRp3302
(dp3303
g11
g12
sg13
S'Georgia'
p3304
sg15
I700
sg16
g12
sg17
g12
sg18
Vc:\u005cwindows\u005cfonts\u005cgeorgiab.ttf
p3305
sg20
g21
sbag1
(g8
g3
NtRp3306
(dp3307
g11
g12
sg13
S'Liberation Sans Narrow'
p3308
sg15
I700
sg16
g267
sg17
g12
sg18
Vc:\u005cwindows\u005cfonts\u005cliberationsansnarrow-bold.ttf
p3309
sg20
g21
sbag1
(g8
g3
NtRp3310
(dp3311
g11
g12
sg13
S'Microsoft NeoGothic'
p3312
sg15
I400
sg16
g12
sg17
g12
sg18
Vc:\u005cwindows\u005cfonts\u005cmsneogothic.ttf
p3313
sg20
g21
sbag1
(g8
g3
NtRp3314
(dp3315
g11
g12
sg13
S'Yu Gothic'
p3316
sg15
I700
sg16
g12
sg17
g12
sg18
VC:\u005cWindows\u005cFonts\u005cYuGothic-Bold.ttf
p3317
sg20
g21
sbag1
(g8
g3
NtRp3318
(dp3319
g11
g69
sg13
S'Open Sans'
p3320
sg15
I700
sg16
g12
sg17
g12
sg18
VC:\u005cWindows\u005cFonts\u005cOpenSans-BoldItalic.ttf
p3321
sg20
g21
sbag1
(g8
g3
NtRp3322
(dp3323
g11
g12
sg13
S'Niagara Engraved'
p3324
sg15
I400
sg16
g12
sg17
g12
sg18
Vc:\u005cwindows\u005cfonts\u005cniageng.ttf
p3325
sg20
g21
sbag1
(g8
g3
NtRp3326
(dp3327
g11
g12
sg13
S'Liberation Mono'
p3328
sg15
I400
sg16
g12
sg17
g12
sg18
VC:\u005cWindows\u005cFonts\u005cLiberationMono-Regular.ttf
p3329
sg20
g21
sbag1
(g8
g3
NtRp3330
(dp3331
g11
g12
sg13
S'MS Reference Specialty'
p3332
sg15
I400
sg16
g12
sg17
g12
sg18
VC:\u005cWindows\u005cFonts\u005cREFSPCL.TTF
p3333
sg20
g21
sbag1
(g8
g3
NtRp3334
(dp3335
g11
g12
sg13
S'Open Sans'
p3336
sg15
I700
sg16
g12
sg17
g12
sg18
Vc:\u005cwindows\u005cfonts\u005copensans-bold.ttf
p3337
sg20
g21
sbag1
(g8
g3
NtRp3338
(dp3339
g11
g69
sg13
S'Source Sans Pro'
p3340
sg15
I400
sg16
g12
sg17
g12
sg18
Vc:\u005cwindows\u005cfonts\u005csourcesanspro-it.ttf
p3341
sg20
g21
sbag1
(g8
g3
NtRp3342
(dp3343
g11
g12
sg13
S'Liberation Sans Narrow'
p3344
sg15
I700
sg16
g267
sg17
g12
sg18
VC:\u005cWindows\u005cFonts\u005cLiberationSansNarrow-Bold.ttf
p3345
sg20
g21
sbag1
(g8
g3
NtRp3346
(dp3347
g11
g12
sg13
S'SWMacro'
p3348
sg15
I700
sg16
g12
sg17
g12
sg18
VC:\u005cWindows\u005cFonts\u005cSWMacro.otf
p3349
sg20
g21
sbag1
(g8
g3
NtRp3350
(dp3351
g11
g12
sg13
S'Linux Libertine G'
p3352
sg15
I400
sg16
g12
sg17
g12
sg18
VC:\u005cWindows\u005cFonts\u005cLinLibertine_R_G.ttf
p3353
sg20
g21
sbag1
(g8
g3
NtRp3354
(dp3355
g11
g69
sg13
S'Rockwell'
p3356
sg15
I700
sg16
g12
sg17
g12
sg18
VC:\u005cWindows\u005cFonts\u005cROCKBI.TTF
p3357
sg20
g21
sbag1
(g8
g3
NtRp3358
(dp3359
g11
g12
sg13
S'Lucida Sans'
p3360
sg15
I700
sg16
g12
sg17
g12
sg18
Vc:\u005cwindows\u005cfonts\u005clsansd.ttf
p3361
sg20
g21
sbag1
(g8
g3
NtRp3362
(dp3363
g11
g12
sg13
S'Rockwell Condensed'
p3364
sg15
I400
sg16
g267
sg17
g12
sg18
VC:\u005cWindows\u005cFonts\u005cROCC____.TTF
p3365
sg20
g21
sbag1
(g8
g3
NtRp3366
(dp3367
g11
g12
sg13
S'Liberation Sans Narrow'
p3368
sg15
I400
sg16
g267
sg17
g12
sg18
Vc:\u005cwindows\u005cfonts\u005cliberationsansnarrow-regular.ttf
p3369
sg20
g21
sbag1
(g8
g3
NtRp3370
(dp3371
g11
g69
sg13
S'DejaVu Serif'
p3372
sg15
I400
sg16
g12
sg17
g12
sg18
VC:\u005cWindows\u005cFonts\u005cDejaVuSerif-Italic.ttf
p3373
sg20
g21
sbag1
(g8
g3
NtRp3374
(dp3375
g11
g69
sg13
S'Perpetua'
p3376
sg15
I400
sg16
g12
sg17
g12
sg18
VC:\u005cWindows\u005cFonts\u005cPERI____.TTF
p3377
sg20
g21
sbag1
(g8
g3
NtRp3378
(dp3379
g11
g12
sg13
S'MS Outlook'
p3380
sg15
I400
sg16
g12
sg17
g12
sg18
VC:\u005cWindows\u005cFonts\u005cOUTLOOK.TTF
p3381
sg20
g21
sbag1
(g8
g3
NtRp3382
(dp3383
g11
g69
sg13
S'Lucida Bright'
p3384
sg15
I400
sg16
g12
sg17
g12
sg18
Vc:\u005cwindows\u005cfonts\u005clbritei.ttf
p3385
sg20
g21
sbag1
(g8
g3
NtRp3386
(dp3387
g11
g12
sg13
S'Bodoni MT'
p3388
sg15
I400
sg16
g12
sg17
g12
sg18
VC:\u005cWindows\u005cFonts\u005cBOD_R.TTF
p3389
sg20
g21
sbag1
(g8
g3
NtRp3390
(dp3391
g11
g69
sg13
S'High Tower Text'
p3392
sg15
I400
sg16
g12
sg17
g12
sg18
Vc:\u005cwindows\u005cfonts\u005chtowerti.ttf
p3393
sg20
g21
sbag1
(g8
g3
NtRp3394
(dp3395
g11
g12
sg13
S'Onyx'
p3396
sg15
I400
sg16
g12
sg17
g12
sg18
Vc:\u005cwindows\u005cfonts\u005conyx.ttf
p3397
sg20
g21
sbag1
(g8
g3
NtRp3398
(dp3399
g11
g12
sg13
S'Caladea'
p3400
sg15
I700
sg16
g12
sg17
g12
sg18
Vc:\u005cwindows\u005cfonts\u005ccaladea-bold.ttf
p3401
sg20
g21
sbag1
(g8
g3
NtRp3402
(dp3403
g11
g12
sg13
S'Lucida Bright'
p3404
sg15
I700
sg16
g12
sg17
g12
sg18
Vc:\u005cwindows\u005cfonts\u005clbrited.ttf
p3405
sg20
g21
sbag1
(g8
g3
NtRp3406
(dp3407
g11
g12
sg13
S'Caladea'
p3408
sg15
I400
sg16
g12
sg17
g12
sg18
Vc:\u005cwindows\u005cfonts\u005ccaladea-regular.ttf
p3409
sg20
g21
sbag1
(g8
g3
NtRp3410
(dp3411
g11
g12
sg13
S'SketchFlow Print'
p3412
sg15
I400
sg16
g12
sg17
g12
sg18
Vc:\u005cwindows\u005cfonts\u005csketchflow print.ttf
p3413
sg20
g21
sbag1
(g8
g3
NtRp3414
(dp3415
g11
g12
sg13
S'DejaVu Sans'
p3416
sg15
I200
sg16
g12
sg17
g12
sg18
Vc:\u005cwindows\u005cfonts\u005cdejavusans-extralight.ttf
p3417
sg20
g21
sbag1
(g8
g3
NtRp3418
(dp3419
g11
g12
sg13
S'Gill Sans MT Condensed'
p3420
sg15
I400
sg16
g267
sg17
g12
sg18
VC:\u005cWindows\u005cFonts\u005cGILC____.TTF
p3421
sg20
g21
sbag1
(g8
g3
NtRp3422
(dp3423
g11
g12
sg13
S'Goudy Old Style'
p3424
sg15
I400
sg16
g12
sg17
g12
sg18
VC:\u005cWindows\u005cFonts\u005cGOUDOS.TTF
p3425
sg20
g21
sbag1
(g8
g3
NtRp3426
(dp3427
g11
g12
sg13
S'Bradley Hand ITC'
p3428
sg15
I400
sg16
g12
sg17
g12
sg18
Vc:\u005cwindows\u005cfonts\u005cbradhitc.ttf
p3429
sg20
g21
sbag1
(g8
g3
NtRp3430
(dp3431
g11
g12
sg13
S'Source Sans Pro'
p3432
sg15
I400
sg16
g12
sg17
g12
sg18
Vc:\u005cwindows\u005cfonts\u005csourcesanspro-regular.ttf
p3433
sg20
g21
sbag1
(g8
g3
NtRp3434
(dp3435
g11
g12
sg13
S'Century'
p3436
sg15
I400
sg16
g12
sg17
g12
sg18
VC:\u005cWindows\u005cFonts\u005cCENTURY.TTF
p3437
sg20
g21
sbag1
(g8
g3
NtRp3438
(dp3439
g11
g12
sg13
S'Britannic Bold'
p3440
sg15
I700
sg16
g12
sg17
g12
sg18
VC:\u005cWindows\u005cFonts\u005cBRITANIC.TTF
p3441
sg20
g21
sbag1
(g8
g3
NtRp3442
(dp3443
g11
g12
sg13
S'Old English Text MT'
p3444
sg15
I400
sg16
g12
sg17
g12
sg18
VC:\u005cWindows\u005cFonts\u005cOLDENGL.TTF
p3445
sg20
g21
sbag1
(g8
g3
NtRp3446
(dp3447
g11
g12
sg13
S'Segoe WP'
p3448
sg15
I400
sg16
g12
sg17
g12
sg18
Vc:\u005cwindows\u005cfonts\u005csegoewp-semilight.ttf
p3449
sg20
g21
sbag1
(g8
g3
NtRp3450
(dp3451
g11
g12
sg13
S'Raavi'
p3452
sg15
I400
sg16
g12
sg17
g12
sg18
VC:\u005cWindows\u005cFonts\u005craavi.ttf
p3453
sg20
g21
sbag1
(g8
g3
NtRp3454
(dp3455
g11
g12
sg13
S'Vladimir Script'
p3456
sg15
I400
sg16
g12
sg17
g12
sg18
Vc:\u005cwindows\u005cfonts\u005cvladimir.ttf
p3457
sg20
g21
sbag1
(g8
g3
NtRp3458
(dp3459
g11
g12
sg13
S'Arial'
p3460
sg15
I700
sg16
g267
sg17
g12
sg18
VC:\u005cWindows\u005cFonts\u005cARIALNB.TTF
p3461
sg20
g21
sbag1
(g8
g3
NtRp3462
(dp3463
g11
g12
sg13
S'Eras Bold ITC'
p3464
sg15
I700
sg16
g12
sg17
g12
sg18
Vc:\u005cwindows\u005cfonts\u005cerasbd.ttf
p3465
sg20
g21
sbag1
(g8
g3
NtRp3466
(dp3467
g11
g12
sg13
S'Bookshelf Symbol 7'
p3468
sg15
I400
sg16
g12
sg17
g12
sg18
Vc:\u005cwindows\u005cfonts\u005cbssym7.ttf
p3469
sg20
g21
sbag1
(g8
g3
NtRp3470
(dp3471
g11
g12
sg13
S'Microsoft NeoGothic'
p3472
sg15
I700
sg16
g12
sg17
g12
sg18
Vc:\u005cwindows\u005cfonts\u005cmsneogothic-bold.ttf
p3473
sg20
g21
sbag1
(g8
g3
NtRp3474
(dp3475
g11
g12
sg13
S'Liberation Serif'
p3476
sg15
I700
sg16
g12
sg17
g12
sg18
Vc:\u005cwindows\u005cfonts\u005cliberationserif-bold.ttf
p3477
sg20
g21
sbag1
(g8
g3
NtRp3478
(dp3479
g11
g12
sg13
S'Segoe WP'
p3480
sg15
I400
sg16
g12
sg17
g12
sg18
Vc:\u005cwindows\u005cfonts\u005csegoewp-black.ttf
p3481
sg20
g21
sbag1
(g8
g3
NtRp3482
(dp3483
g11
g12
sg13
S'Source Code Pro'
p3484
sg15
I200
sg16
g12
sg17
g12
sg18
Vc:\u005cwindows\u005cfonts\u005csourcecodepro-extralight.ttf
p3485
sg20
g21
sbag1
(g8
g3
NtRp3486
(dp3487
g11
g12
sg13
S'Corbel'
p3488
sg15
I400
sg16
g12
sg17
g12
sg18
VC:\u005cWindows\u005cFonts\u005cCORBEL.TTF
p3489
sg20
g21
sbag1
(g8
g3
NtRp3490
(dp3491
g11
g12
sg13
S'jsMath-cmr10'
p3492
sg15
I400
sg16
g12
sg17
g12
sg18
Vc:\u005cwindows\u005cfonts\u005cjsmath-cmr10.ttf
p3493
sg20
g21
sbag1
(g8
g3
NtRp3494
(dp3495
g11
g12
sg13
S'Plantagenet Cherokee'
p3496
sg15
I400
sg16
g12
sg17
g12
sg18
VC:\u005cWindows\u005cFonts\u005cplantc.ttf
p3497
sg20
g21
sbag1
(g8
g3
NtRp3498
(dp3499
g11
g12
sg13
S'Yu Gothic'
p3500
sg15
I400
sg16
g12
sg17
g12
sg18
VC:\u005cWindows\u005cFonts\u005cYuGothic.ttf
p3501
sg20
g21
sbag1
(g8
g3
NtRp3502
(dp3503
g11
g12
sg13
S'Centaur'
p3504
sg15
I400
sg16
g12
sg17
g12
sg18
VC:\u005cWindows\u005cFonts\u005cCENTAUR.TTF
p3505
sg20
g21
sbag1
(g8
g3
NtRp3506
(dp3507
g11
g12
sg13
S'Iskoola Pota'
p3508
sg15
I700
sg16
g12
sg17
g12
sg18
VC:\u005cWindows\u005cFonts\u005ciskpotab.ttf
p3509
sg20
g21
sbag1
(g8
g3
NtRp3510
(dp3511
g11
g12
sg13
S'Times New Roman'
p3512
sg15
I700
sg16
g12
sg17
g12
sg18
VC:\u005cWindows\u005cFonts\u005ctimesbd.ttf
p3513
sg20
g21
sbag1
(g8
g3
NtRp3514
(dp3515
g11
g12
sg13
S'Microsoft NeoGothic'
p3516
sg15
I400
sg16
g12
sg17
g12
sg18
VC:\u005cWindows\u005cFonts\u005cMSNeoGothic.ttf
p3517
sg20
g21
sbag1
(g8
g3
NtRp3518
(dp3519
g11
g12
sg13
S'jsMath-cmbx10'
p3520
sg15
I700
sg16
g12
sg17
g12
sg18
VC:\u005cWindows\u005cFonts\u005cjsMath-cmbx10.ttf
p3521
sg20
g21
sbag1
(g8
g3
NtRp3522
(dp3523
g11
g12
sg13
S'Forte'
p3524
sg15
I400
sg16
g12
sg17
g12
sg18
Vc:\u005cwindows\u005cfonts\u005cforte.ttf
p3525
sg20
g21
sbag1
(g8
g3
NtRp3526
(dp3527
g11
g69
sg13
S'Lucida Handwriting'
p3528
sg15
I400
sg16
g12
sg17
g12
sg18
Vc:\u005cwindows\u005cfonts\u005clhandw.ttf
p3529
sg20
g21
sbag1
(g8
g3
NtRp3530
(dp3531
g11
g12
sg13
S'Pristina'
p3532
sg15
I400
sg16
g12
sg17
g12
sg18
VC:\u005cWindows\u005cFonts\u005cPRISTINA.TTF
p3533
sg20
g21
sbag1
(g8
g3
NtRp3534
(dp3535
g11
g12
sg13
S'YouYuan'
p3536
sg15
I400
sg16
g12
sg17
g12
sg18
VC:\u005cWindows\u005cFonts\u005cSIMYOU.TTF
p3537
sg20
g21
sbag1
(g8
g3
NtRp3538
(dp3539
g11
g12
sg13
S'DejaVu Sans'
p3540
sg15
I400
sg16
g267
sg17
g12
sg18
Vc:\u005cwindows\u005cfonts\u005cdejavusanscondensed.ttf
p3541
sg20
g21
sbag1
(g8
g3
NtRp3542
(dp3543
g11
g12
sg13
S'Rockwell Extra Bold'
p3544
sg15
I700
sg16
g12
sg17
g12
sg18
Vc:\u005cwindows\u005cfonts\u005crockeb.ttf
p3545
sg20
g21
sbag1
(g8
g3
NtRp3546
(dp3547
g11
g12
sg13
S'Rockwell'
p3548
sg15
I700
sg16
g12
sg17
g12
sg18
Vc:\u005cwindows\u005cfonts\u005crockb.ttf
p3549
sg20
g21
sbag1
(g8
g3
NtRp3550
(dp3551
g11
g69
sg13
S'Franklin Gothic Demi'
p3552
sg15
I600
sg16
g12
sg17
g12
sg18
VC:\u005cWindows\u005cFonts\u005cFRADMIT.TTF
p3553
sg20
g21
sbag1
(g8
g3
NtRp3554
(dp3555
g11
g69
sg13
S'jsMath-cmmi10'
p3556
sg15
I400
sg16
g12
sg17
g12
sg18
VC:\u005cWindows\u005cFonts\u005cjsMath-cmmi10.ttf
p3557
sg20
g21
sbag1
(g8
g3
NtRp3558
(dp3559
g11
g12
sg13
S'Playbill'
p3560
sg15
I400
sg16
g12
sg17
g12
sg18
Vc:\u005cwindows\u005cfonts\u005cplaybill.ttf
p3561
sg20
g21
sbag1
(g8
g3
NtRp3562
(dp3563
g11
g12
sg13
S'Lucida Sans Typewriter'
p3564
sg15
I700
sg16
g12
sg17
g12
sg18
Vc:\u005cwindows\u005cfonts\u005cltypeb.ttf
p3565
sg20
g21
sbag1
(g8
g3
NtRp3566
(dp3567
g11
g69
sg13
S'Gentium Basic'
p3568
sg15
I700
sg16
g12
sg17
g12
sg18
VC:\u005cWindows\u005cFonts\u005cGenBasBI.ttf
p3569
sg20
g21
sbag1
(g8
g3
NtRp3570
(dp3571
g11
g69
sg13
S'Source Sans Pro'
p3572
sg15
I700
sg16
g12
sg17
g12
sg18
VC:\u005cWindows\u005cFonts\u005cSourceSansPro-BoldIt.ttf
p3573
sg20
g21
sbag1
(g8
g3
NtRp3574
(dp3575
g11
g69
sg13
S'Liberation Mono'
p3576
sg15
I700
sg16
g12
sg17
g12
sg18
Vc:\u005cwindows\u005cfonts\u005cliberationmono-bolditalic.ttf
p3577
sg20
g21
sbag1
(g8
g3
NtRp3578
(dp3579
g11
g12
sg13
S'Bodoni MT'
p3580
sg15
I400
sg16
g12
sg17
g12
sg18
Vc:\u005cwindows\u005cfonts\u005cbod_r.ttf
p3581
sg20
g21
sbag1
(g8
g3
NtRp3582
(dp3583
g11
g12
sg13
S'Bodoni MT'
p3584
sg15
I400
sg16
g12
sg17
g12
sg18
Vc:\u005cwindows\u005cfonts\u005cbod_pstc.ttf
p3585
sg20
g21
sbag1
(g8
g3
NtRp3586
(dp3587
g11
g12
sg13
S'Buxton Sketch'
p3588
sg15
I400
sg16
g12
sg17
g12
sg18
VC:\u005cWindows\u005cFonts\u005cBuxtonSketch.ttf
p3589
sg20
g21
sbag1
(g8
g3
NtRp3590
(dp3591
g11
g69
sg13
S'Constantia'
p3592
sg15
I400
sg16
g12
sg17
g12
sg18
Vc:\u005cwindows\u005cfonts\u005cconstani.ttf
p3593
sg20
g21
sbag1
(g8
g3
NtRp3594
(dp3595
g11
g12
sg13
S'Consolas'
p3596
sg15
I700
sg16
g12
sg17
g12
sg18
VC:\u005cWindows\u005cFonts\u005cCONSOLAB.TTF
p3597
sg20
g21
sbag1
(g8
g3
NtRp3598
(dp3599
g11
g69
sg13
S'Liberation Sans Narrow'
p3600
sg15
I400
sg16
g267
sg17
g12
sg18
VC:\u005cWindows\u005cFonts\u005cLiberationSansNarrow-Italic.ttf
p3601
sg20
g21
sbag1
(g8
g3
NtRp3602
(dp3603
g11
g12
sg13
S'jsMath-cmsy10'
p3604
sg15
I400
sg16
g12
sg17
g12
sg18
Vc:\u005cwindows\u005cfonts\u005cjsmath-cmsy10.ttf
p3605
sg20
g21
sbag1
(g8
g3
NtRp3606
(dp3607
g11
g69
sg13
S'Linux Biolinum G'
p3608
sg15
I400
sg16
g12
sg17
g12
sg18
Vc:\u005cwindows\u005cfonts\u005clinbiolinum_ri_g.ttf
p3609
sg20
g21
sbag1
(g8
g3
NtRp3610
(dp3611
g11
g12
sg13
S'Gabriola'
p3612
sg15
I400
sg16
g12
sg17
g12
sg18
Vc:\u005cwindows\u005cfonts\u005cgabriola.ttf
p3613
sg20
g21
sbag1
(g8
g3
NtRp3614
(dp3615
g11
g12
sg13
S'LiSu'
p3616
sg15
I400
sg16
g12
sg17
g12
sg18
Vc:\u005cwindows\u005cfonts\u005csimli.ttf
p3617
sg20
g21
sbag1
(g8
g3
NtRp3618
(dp3619
g11
g69
sg13
S'Perpetua'
p3620
sg15
I700
sg16
g12
sg17
g12
sg18
Vc:\u005cwindows\u005cfonts\u005cperbi___.ttf
p3621
sg20
g21
sbag1
(g8
g3
NtRp3622
(dp3623
g11
g12
sg13
S'Gentium Basic'
p3624
sg15
I700
sg16
g12
sg17
g12
sg18
Vc:\u005cwindows\u005cfonts\u005cgenbasb.ttf
p3625
sg20
g21
sbag1
(g8
g3
NtRp3626
(dp3627
g11
g69
sg13
S'Caladea'
p3628
sg15
I400
sg16
g12
sg17
g12
sg18
Vc:\u005cwindows\u005cfonts\u005ccaladea-italic.ttf
p3629
sg20
g21
sbag1
(g8
g3
NtRp3630
(dp3631
g11
g12
sg13
S'Perpetua Titling MT'
p3632
sg15
I700
sg16
g12
sg17
g12
sg18
VC:\u005cWindows\u005cFonts\u005cPERTIBD.TTF
p3633
sg20
g21
sbag1
(g8
g3
NtRp3634
(dp3635
g11
g12
sg13
S'Ravie'
p3636
sg15
I400
sg16
g12
sg17
g12
sg18
Vc:\u005cwindows\u005cfonts\u005cravie.ttf
p3637
sg20
g21
sbag1
(g8
g3
NtRp3638
(dp3639
g11
g69
sg13
S'Liberation Sans Narrow'
p3640
sg15
I400
sg16
g267
sg17
g12
sg18
Vc:\u005cwindows\u005cfonts\u005cliberationsansnarrow-italic.ttf
p3641
sg20
g21
sbag1
(g8
g3
NtRp3642
(dp3643
g11
g12
sg13
S'STXihei'
p3644
sg15
I400
sg16
g12
sg17
g12
sg18
Vc:\u005cwindows\u005cfonts\u005cstxihei.ttf
p3645
sg20
g21
sbag1
(g8
g3
NtRp3646
(dp3647
g11
g12
sg13
S'Source Sans Pro'
p3648
sg15
I900
sg16
g12
sg17
g12
sg18
Vc:\u005cwindows\u005cfonts\u005csourcesanspro-black.ttf
p3649
sg20
g21
sbag1
(g8
g3
NtRp3650
(dp3651
g11
g69
sg13
S'Source Sans Pro'
p3652
sg15
I700
sg16
g12
sg17
g12
sg18
Vc:\u005cwindows\u005cfonts\u005csourcesanspro-boldit.ttf
p3653
sg20
g21
sbag1
(g8
g3
NtRp3654
(dp3655
g11
g69
sg13
S'Lucida Bright'
p3656
sg15
I700
sg16
g12
sg17
g12
sg18
VC:\u005cWindows\u005cFonts\u005cLBRITEDI.TTF
p3657
sg20
g21
sbag1
(g8
g3
NtRp3658
(dp3659
g11
g12
sg13
S'Gentium Book Basic'
p3660
sg15
I700
sg16
g12
sg17
g12
sg18
Vc:\u005cwindows\u005cfonts\u005cgenbkbasb.ttf
p3661
sg20
g21
sbag1
(g8
g3
NtRp3662
(dp3663
g11
g12
sg13
S'FZShuTi'
p3664
sg15
I400
sg16
g12
sg17
g12
sg18
VC:\u005cWindows\u005cFonts\u005cFZSTK.TTF
p3665
sg20
g21
sbag1
(g8
g3
NtRp3666
(dp3667
g11
g40
sg13
S'DejaVu Sans Mono'
p3668
sg15
I700
sg16
g12
sg17
g12
sg18
VC:\u005cWindows\u005cFonts\u005cDejaVuSansMono-BoldOblique.ttf
p3669
sg20
g21
sbag1
(g8
g3
NtRp3670
(dp3671
g11
g12
sg13
S'DejaVu Sans'
p3672
sg15
I700
sg16
g267
sg17
g12
sg18
VC:\u005cWindows\u005cFonts\u005cDejaVuSansCondensed-Bold.ttf
p3673
sg20
g21
sbag1
(g8
g3
NtRp3674
(dp3675
g11
g69
sg13
S'Liberation Sans'
p3676
sg15
I400
sg16
g12
sg17
g12
sg18
VC:\u005cWindows\u005cFonts\u005cLiberationSans-Italic.ttf
p3677
sg20
g21
sbag1
(g8
g3
NtRp3678
(dp3679
g11
g12
sg13
S'Script MT Bold'
p3680
sg15
I700
sg16
g12
sg17
g12
sg18
Vc:\u005cwindows\u005cfonts\u005cscriptbl.ttf
p3681
sg20
g21
sbag1
(g8
g3
NtRp3682
(dp3683
g11
g69
sg13
S'Century Gothic'
p3684
sg15
I400
sg16
g12
sg17
g12
sg18
VC:\u005cWindows\u005cFonts\u005cGOTHICI.TTF
p3685
sg20
g21
sbag1
(g8
g3
NtRp3686
(dp3687
g11
g12
sg13
S'Maiandra GD'
p3688
sg15
I400
sg16
g12
sg17
g12
sg18
VC:\u005cWindows\u005cFonts\u005cMAIAN.TTF
p3689
sg20
g21
sbag1
(g8
g3
NtRp3690
(dp3691
g11
g69
sg13
S'Calisto MT'
p3692
sg15
I700
sg16
g12
sg17
g12
sg18
Vc:\u005cwindows\u005cfonts\u005ccalistbi.ttf
p3693
sg20
g21
sbag1
(g8
g3
NtRp3694
(dp3695
g11
g12
sg13
S'Old English Text MT'
p3696
sg15
I400
sg16
g12
sg17
g12
sg18
Vc:\u005cwindows\u005cfonts\u005coldengl.ttf
p3697
sg20
g21
sbag1
(g8
g3
NtRp3698
(dp3699
g11
g12
sg13
S'DengXian'
p3700
sg15
I400
sg16
g12
sg17
g12
sg18
Vc:\u005cwindows\u005cfonts\u005cdengxian.ttf
p3701
sg20
g21
sbag1
(g8
g3
NtRp3702
(dp3703
g11
g69
sg13
S'Harlow Solid Italic'
p3704
sg15
I400
sg16
g12
sg17
g12
sg18
VC:\u005cWindows\u005cFonts\u005cHARLOWSI.TTF
p3705
sg20
g21
sbag1
(g8
g3
NtRp3706
(dp3707
g11
g12
sg13
S'Khmer UI'
p3708
sg15
I400
sg16
g12
sg17
g12
sg18
VC:\u005cWindows\u005cFonts\u005cKhmerUI.ttf
p3709
sg20
g21
sbag1
(g8
g3
NtRp3710
(dp3711
g11
g69
sg13
S'Bookman Old Style'
p3712
sg15
I700
sg16
g12
sg17
g12
sg18
VC:\u005cWindows\u005cFonts\u005cBOOKOSBI.TTF
p3713
sg20
g21
sbag1
(g8
g3
NtRp3714
(dp3715
g11
g12
sg13
S'Berlin Sans FB'
p3716
sg15
I700
sg16
g12
sg17
g12
sg18
Vc:\u005cwindows\u005cfonts\u005cbrlnsb.ttf
p3717
sg20
g21
sbag1
(g8
g3
NtRp3718
(dp3719
g11
g12
sg13
S'Bell MT'
p3720
sg15
I700
sg16
g12
sg17
g12
sg18
Vc:\u005cwindows\u005cfonts\u005cbellb.ttf
p3721
sg20
g21
sbag1
(g8
g3
NtRp3722
(dp3723
g11
g69
sg13
S'Carlito'
p3724
sg15
I700
sg16
g12
sg17
g12
sg18
VC:\u005cWindows\u005cFonts\u005cCarlito-BoldItalic.ttf
p3725
sg20
g21
sbag1
(g8
g3
NtRp3726
(dp3727
g11
g40
sg13
S'DejaVu Sans Mono'
p3728
sg15
I400
sg16
g12
sg17
g12
sg18
Vc:\u005cwindows\u005cfonts\u005cdejavusansmono-oblique.ttf
p3729
sg20
g21
sbag1
(g8
g3
NtRp3730
(dp3731
g11
g69
sg13
S'Lucida Calligraphy'
p3732
sg15
I400
sg16
g12
sg17
g12
sg18
VC:\u005cWindows\u005cFonts\u005cLCALLIG.TTF
p3733
sg20
g21
sbag1
(g8
g3
NtRp3734
(dp3735
g11
g69
sg13
S'Bodoni MT'
p3736
sg15
I400
sg16
g267
sg17
g12
sg18
VC:\u005cWindows\u005cFonts\u005cBOD_CI.TTF
p3737
sg20
g21
sbag1
(g8
g3
NtRp3738
(dp3739
g11
g12
sg13
S'Tw Cen MT'
p3740
sg15
I700
sg16
g12
sg17
g12
sg18
VC:\u005cWindows\u005cFonts\u005cTCB_____.TTF
p3741
sg20
g21
sbag1
(g8
g3
NtRp3742
(dp3743
g11
g12
sg13
S'Bodoni MT'
p3744
sg15
I400
sg16
g12
sg17
g12
sg18
VC:\u005cWindows\u005cFonts\u005cBOD_PSTC.TTF
p3745
sg20
g21
sbag1
(g8
g3
NtRp3746
(dp3747
g11
g12
sg13
S'Poor Richard'
p3748
sg15
I400
sg16
g12
sg17
g12
sg18
Vc:\u005cwindows\u005cfonts\u005cpoorich.ttf
p3749
sg20
g21
sbag1
(g8
g3
NtRp3750
(dp3751
g11
g12
sg13
S'Segoe WP'
p3752
sg15
I700
sg16
g12
sg17
g12
sg18
Vc:\u005cwindows\u005cfonts\u005csegoewp-bold.ttf
p3753
sg20
g21
sbag1
(g8
g3
NtRp3754
(dp3755
g11
g69
sg13
S'Bodoni MT'
p3756
sg15
I700
sg16
g267
sg17
g12
sg18
Vc:\u005cwindows\u005cfonts\u005cbod_cbi.ttf
p3757
sg20
g21
sbag1
(g8
g3
NtRp3758
(dp3759
g11
g12
sg13
S'Broadway'
p3760
sg15
I400
sg16
g12
sg17
g12
sg18
Vc:\u005cwindows\u005cfonts\u005cbroadw.ttf
p3761
sg20
g21
sbag1
(g8
g3
NtRp3762
(dp3763
g11
g12
sg13
S'Stencil'
p3764
sg15
I400
sg16
g12
sg17
g12
sg18
Vc:\u005cwindows\u005cfonts\u005cstencil.ttf
p3765
sg20
g21
sbag1
(g8
g3
NtRp3766
(dp3767
g11
g12
sg13
S'Ravie'
p3768
sg15
I400
sg16
g12
sg17
g12
sg18
VC:\u005cWindows\u005cFonts\u005cRAVIE.TTF
p3769
sg20
g21
sbasS'defaultFamily'
p3770
(dp3771
Vafm
p3772
VHelvetica
p3773
sVttf
p3774
VBitstream Vera Sans
p3775
ssS'ttffiles'
p3776
(lp3777
g19
ag25
ag29
ag33
ag37
ag42
ag46
ag50
ag54
ag58
ag62
ag66
ag71
ag75
ag79
ag83
ag87
ag91
ag95
ag99
ag103
ag107
ag111
ag115
ag119
ag123
ag127
ag131
ag135
ag139
ag143
ag147
ag151
ag155
ag159
ag163
ag167
ag171
ag175
ag179
ag183
ag187
ag191
ag195
ag199
ag203
ag207
ag211
ag215
ag219
ag223
ag227
ag231
ag235
ag239
ag243
aVc:\u005cwindows\u005cfonts\u005ctaileb.ttf
p3778
ag247
ag251
ag255
ag259
ag263
ag268
ag272
ag276
ag280
ag284
ag288
ag292
ag296
ag300
ag304
ag308
ag312
ag316
ag320
ag324
ag328
ag332
ag336
ag340
ag344
ag348
ag352
ag356
ag360
ag364
ag368
ag372
ag376
ag380
ag384
ag388
ag392
ag396
ag400
ag404
ag408
ag412
ag416
ag420
ag424
ag428
ag432
aVc:\u005cwindows\u005cfonts\u005ckokilab.ttf
p3779
ag436
ag440
ag444
ag448
ag452
ag456
ag460
ag464
ag468
ag472
ag476
ag480
ag484
ag488
ag492
ag496
ag500
aVc:\u005cwindows\u005cfonts\u005cverdanaz.ttf
p3780
ag504
ag508
ag512
ag516
ag520
aVC:\u005cWindows\u005cFonts\u005cnrkis.ttf
p3781
ag524
ag528
ag532
ag536
ag540
ag544
ag548
ag552
ag556
ag560
ag564
ag568
ag572
ag576
ag580
ag584
ag588
ag592
ag596
ag600
ag604
ag608
ag612
ag616
ag620
ag624
ag628
ag632
ag636
ag640
ag644
ag648
ag652
ag656
ag660
ag664
ag668
ag672
ag676
ag680
ag684
ag688
ag692
ag696
ag700
ag704
ag708
ag712
ag716
ag720
ag724
ag728
ag732
ag736
ag740
aVc:\u005cwindows\u005cfonts\u005cvrindab.ttf
p3782
aVC:\u005cWindows\u005cFonts\u005ctrebucbi.ttf
p3783
ag744
ag748
ag752
ag756
ag760
ag764
ag768
ag772
ag776
ag780
ag784
ag788
ag792
ag796
ag800
ag804
ag808
ag812
ag816
ag820
ag824
ag828
ag832
ag836
ag840
ag844
ag848
ag852
ag856
ag860
ag864
aVc:\u005cwindows\u005cfonts\u005cutsaahb.ttf
p3784
ag868
ag872
ag876
ag880
ag884
ag888
ag892
ag896
ag900
ag904
ag908
ag912
ag916
ag920
ag924
ag928
ag932
ag936
ag940
ag944
ag948
ag952
ag956
ag960
ag964
ag968
ag972
ag976
ag980
ag984
ag988
ag992
ag996
ag1000
ag1004
ag1008
ag1012
ag1016
ag1020
ag1024
aVC:\u005cWindows\u005cFonts\u005cbrowab.ttf
p3785
ag1028
ag1032
ag1036
ag1040
ag1044
ag1048
ag1052
ag1056
ag1060
ag1064
ag1068
ag1072
ag1076
ag1080
ag1084
ag1088
ag1092
ag1096
ag1100
ag1104
ag1108
ag1112
ag1116
ag1120
ag1124
ag1128
ag1132
aVc:\u005cwindows\u005cfonts\u005cupckbi.ttf
p3786
ag1136
ag1140
ag1144
ag1148
ag1152
ag1156
ag1160
ag1164
ag1168
ag1172
ag1176
ag1180
ag1184
ag1188
ag1192
ag1196
ag1200
ag1204
ag1208
ag1212
ag1216
ag1220
ag1224
ag1228
aVC:\u005cWindows\u005cFonts\u005cverdanai.ttf
p3787
ag1232
aVc:\u005cwindows\u005cfonts\u005csegoepr.ttf
p3788
aVc:\u005cwindows\u005cfonts\u005cmicross.ttf
p3789
ag1236
ag1240
ag1244
ag1248
aVc:\u005cwindows\u005cfonts\u005ckalingab.ttf
p3790
ag1252
ag1256
ag1260
ag1264
ag1268
ag1272
ag1276
ag1280
ag1284
ag1288
ag1292
ag1296
ag1300
ag1304
ag1308
ag1312
aVc:\u005cwindows\u005cfonts\u005cl_10646.ttf
p3791
aVC:\u005cWindows\u005cFonts\u005cmriamc.ttf
p3792
ag1316
aVC:\u005cWindows\u005cFonts\u005cseguisb.ttf
p3793
ag1320
ag1324
ag1328
ag1332
ag1336
ag1340
ag1344
ag1348
ag1352
ag1356
ag1360
ag1364
aVC:\u005cWindows\u005cFonts\u005cgautamib.ttf
p3794
ag1368
ag1372
ag1376
ag1380
ag1384
ag1388
aVC:\u005cWindows\u005cFonts\u005ctahomabd.ttf
p3795
ag1392
ag1396
ag1400
ag1404
ag1408
ag1412
ag1416
aVc:\u005cwindows\u005cfonts\u005csegoeuii.ttf
p3796
ag1420
aVc:\u005cwindows\u005cfonts\u005ckokilai.ttf
p3797
ag1424
ag1428
ag1432
ag1436
ag1440
ag1444
ag1448
ag1452
ag1456
ag1460
ag1464
ag1468
ag1472
ag1476
ag1480
ag1484
ag1488
ag1492
aVc:\u005cwindows\u005cfonts\u005ccour.ttf
p3798
aVC:\u005cWindows\u005cFonts\u005clatha.ttf
p3799
ag1496
ag1500
ag1504
ag1508
aVc:\u005cwindows\u005cfonts\u005cyahei_mono.ttf
p3800
ag1512
ag1516
ag1520
ag1524
ag1528
ag1532
ag1536
ag1540
ag1544
ag1548
ag1552
ag1556
ag1560
ag1564
aVC:\u005cWindows\u005cFonts\u005ccalibrib.ttf
p3801
ag1568
ag1572
ag1576
ag1580
ag1584
ag1588
ag1592
aVC:\u005cWindows\u005cFonts\u005cupclb.ttf
p3802
ag1596
ag1600
ag1604
ag1608
ag1612
ag1616
ag1620
ag1624
ag1628
ag1632
ag1636
ag1640
aVC:\u005cWindows\u005cFonts\u005cupcdb.ttf
p3803
ag1644
ag1648
ag1652
ag1656
ag1660
ag1664
ag1668
ag1672
ag1676
ag1680
ag1684
ag1688
ag1692
ag1696
ag1700
ag1704
ag1708
ag1712
ag1716
ag1720
ag1724
ag1728
aVC:\u005cWindows\u005cFonts\u005cdaunpenh.ttf
p3804
ag1732
aVc:\u005cwindows\u005cfonts\u005ccalibril.ttf
p3805
ag1736
ag1740
ag1744
ag1748
ag1752
aVc:\u005cwindows\u005cfonts\u005ckokilabi.ttf
p3806
ag1756
ag1760
ag1764
ag1768
aVC:\u005cWindows\u005cFonts\u005cbrowauz.ttf
p3807
ag1772
ag1776
ag1780
ag1784
ag1788
ag1792
ag1796
ag1800
aVc:\u005cwindows\u005cfonts\u005ccourbd.ttf
p3808
ag1804
ag1808
ag1812
ag1816
aVc:\u005cwindows\u005cfonts\u005cshrutib.ttf
p3809
ag1820
aVc:\u005cwindows\u005cfonts\u005copens___.ttf
p3810
ag1824
aVc:\u005cwindows\u005cfonts\u005cbrowaui.ttf
p3811
ag1828
ag1832
ag1836
aVc:\u005cwindows\u005cfonts\u005cframdit.ttf
p3812
ag1840
ag1844
ag1848
ag1852
ag1856
aVC:\u005cWindows\u005cFonts\u005cupcii.ttf
p3813
ag1860
ag1864
aVc:\u005cwindows\u005cfonts\u005cmangalb.ttf
p3814
ag1868
ag1872
ag1876
ag1880
ag1884
ag1888
ag1892
ag1896
ag1900
ag1904
ag1908
ag1912
ag1916
ag1920
ag1924
ag1928
ag1932
aVC:\u005cWindows\u005cFonts\u005carialbi.ttf
p3815
aVc:\u005cwindows\u005cfonts\u005cupcebi.ttf
p3816
ag1936
ag1940
ag1944
ag1948
ag1952
ag1956
ag1960
ag1964
ag1968
ag1972
ag1976
ag1980
ag1984
aVC:\u005cWindows\u005cFonts\u005cupcdbi.ttf
p3817
ag1988
ag1992
ag1996
ag2000
ag2004
ag2008
aVc:\u005cwindows\u005cfonts\u005cupcibi.ttf
p3818
ag2012
ag2016
ag2020
ag2024
ag2028
ag2032
ag2036
ag2040
ag2044
ag2048
ag2052
ag2056
ag2060
ag2064
aVc:\u005cwindows\u005cfonts\u005cgautami.ttf
p3819
ag2068
ag2072
ag2076
ag2080
ag2084
aVC:\u005cWindows\u005cFonts\u005cvijayab.ttf
p3820
ag2088
ag2092
ag2096
aVc:\u005cwindows\u005cfonts\u005ccalibriz.ttf
p3821
ag2100
ag2104
ag2108
ag2112
ag2116
aVC:\u005cWindows\u005cFonts\u005ctimes.ttf
p3822
aVC:\u005cWindows\u005cFonts\u005cangsauz.ttf
p3823
ag2120
aVC:\u005cWindows\u005cFonts\u005ctrebucbd.ttf
p3824
aVc:\u005cwindows\u005cfonts\u005cupcib.ttf
p3825
ag2124
aVC:\u005cWindows\u005cFonts\u005csegoeui.ttf
p3826
aVC:\u005cWindows\u005cFonts\u005ccouri.ttf
p3827
ag2128
aVC:\u005cWindows\u005cFonts\u005ccordiauz.ttf
p3828
ag2132
aVc:\u005cwindows\u005cfonts\u005ccordiab.ttf
p3829
aVc:\u005cwindows\u005cfonts\u005ceuphemia.ttf
p3830
ag2136
aVc:\u005cwindows\u005cfonts\u005cangsab.ttf
p3831
ag2140
ag2144
ag2148
ag2152
aVc:\u005cwindows\u005cfonts\u005cmsjhbd.ttf
p3832
ag2156
ag2160
aVC:\u005cWindows\u005cFonts\u005caparaj.ttf
p3833
ag2164
ag2168
ag2172
aVC:\u005cWindows\u005cFonts\u005csylfaen.ttf
p3834
ag2176
ag2180
ag2184
ag2188
ag2192
ag2196
ag2200
ag2204
ag2208
ag2212
aVC:\u005cWindows\u005cFonts\u005csimpbdo.ttf
p3835
ag2216
ag2220
aVC:\u005cWindows\u005cFonts\u005ctungab.ttf
p3836
ag2224
ag2228
aVC:\u005cWindows\u005cFonts\u005cmriam.ttf
p3837
ag2232
ag2236
ag2240
ag2244
aVC:\u005cWindows\u005cFonts\u005ccomicbd.ttf
p3838
ag2248
ag2252
aVC:\u005cWindows\u005cFonts\u005ciskpota.ttf
p3839
ag2256
aVc:\u005cwindows\u005cfonts\u005clvnm.ttf
p3840
aVc:\u005cwindows\u005cfonts\u005cupcjl.ttf
p3841
ag2260
ag2264
ag2269
ag2273
aVc:\u005cwindows\u005cfonts\u005cmsyi.ttf
p3842
ag2277
aVC:\u005cWindows\u005cFonts\u005csimkai.ttf
p3843
ag2281
aVC:\u005cWindows\u005cFonts\u005ctradbdo.ttf
p3844
ag2285
aVC:\u005cWindows\u005cFonts\u005csimhei.ttf
p3845
aVC:\u005cWindows\u005cFonts\u005cbrowai.ttf
p3846
aVC:\u005cWindows\u005cFonts\u005cutsaahi.ttf
p3847
ag2289
ag2293
ag2297
aVC:\u005cWindows\u005cFonts\u005cupcji.ttf
p3848
aVc:\u005cwindows\u005cfonts\u005csegoescb.ttf
p3849
ag2301
aVC:\u005cWindows\u005cFonts\u005carialbd.ttf
p3850
ag2305
ag2309
ag2313
ag2317
ag2321
ag2325
aVc:\u005cwindows\u005cfonts\u005cangsa.ttf
p3851
ag2329
ag2333
ag2337
aVC:\u005cWindows\u005cFonts\u005cupcel.ttf
p3852
ag2341
ag2345
ag2349
ag2353
ag2357
ag2361
ag2365
ag2369
aVC:\u005cWindows\u005cFonts\u005cupcil.ttf
p3853
ag2373
ag2377
ag2381
ag2385
ag2389
ag2393
ag2397
ag2401
ag2405
ag2409
ag2413
ag2417
ag2421
ag2425
ag2429
aVc:\u005cwindows\u005cfonts\u005cfrank.ttf
p3854
ag2433
ag2437
ag2441
ag2445
ag2449
ag2453
ag2457
ag2461
ag2465
aVc:\u005cwindows\u005cfonts\u005caparajb.ttf
p3855
aVC:\u005cWindows\u005cFonts\u005cdavidbd.ttf
p3856
ag2469
ag2473
ag2477
ag2481
aVc:\u005cwindows\u005cfonts\u005cariblk.ttf
p3857
ag2485
ag2489
ag2493
aVc:\u005cwindows\u005cfonts\u005craavib.ttf
p3858
ag2497
ag2501
ag2505
ag2509
ag2513
ag2517
ag2521
ag2525
ag2529
ag2533
aVC:\u005cWindows\u005cFonts\u005ctrebuc.ttf
p3859
ag2537
ag2541
ag2545
ag2549
ag2553
ag2557
ag2561
ag2565
ag2569
ag2573
ag2577
aVc:\u005cwindows\u005cfonts\u005cupcll.ttf
p3860
ag2581
ag2585
ag2589
ag2593
aVc:\u005cwindows\u005cfonts\u005ccordiaub.ttf
p3861
ag2597
ag2601
ag2605
ag2609
ag2613
ag2617
ag2621
ag2625
aVc:\u005cwindows\u005cfonts\u005ccalibrii.ttf
p3862
ag2629
aVc:\u005cwindows\u005cfonts\u005ctimesi.ttf
p3863
ag2633
aVc:\u005cwindows\u005cfonts\u005cupcfl.ttf
p3864
ag2637
ag2641
ag2645
ag2649
ag2653
aVC:\u005cWindows\u005cFonts\u005cupcjbi.ttf
p3865
aVC:\u005cWindows\u005cFonts\u005ccourbi.ttf
p3866
ag2657
aVc:\u005cwindows\u005cfonts\u005cmsuighur.ttf
p3867
aVc:\u005cwindows\u005cfonts\u005cupcfb.ttf
p3868
aVC:\u005cWindows\u005cFonts\u005cpalai.ttf
p3869
ag2661
ag2665
ag2669
ag2673
aVC:\u005cWindows\u005cFonts\u005cupckb.ttf
p3870
ag2677
ag2681
ag2685
ag2689
ag2693
ag2697
ag2701
ag2705
ag2709
ag2713
ag2717
ag2721
ag2725
aVC:\u005cWindows\u005cFonts\u005cnyala.ttf
p3871
ag2729
aVc:\u005cwindows\u005cfonts\u005cmalgunbd.ttf
p3872
ag2733
ag2737
ag2741
ag2745
ag2749
aVc:\u005cwindows\u005cfonts\u005cntailu.ttf
p3873
aVc:\u005cwindows\u005cfonts\u005ckartikab.ttf
p3874
aVc:\u005cwindows\u005cfonts\u005cdavid.ttf
p3875
aVC:\u005cWindows\u005cFonts\u005ccalibrili.ttf
p3876
ag2753
ag2757
ag2761
aVC:\u005cWindows\u005cFonts\u005cbrowau.ttf
p3877
ag2765
ag2769
ag2773
ag2777
aVc:\u005cwindows\u005cfonts\u005cupcfbi.ttf
p3878
aVc:\u005cwindows\u005cfonts\u005cleelawdb.ttf
p3879
ag2781
ag2785
ag2789
aVc:\u005cwindows\u005cfonts\u005cwebdings.ttf
p3880
ag2793
aVC:\u005cWindows\u005cFonts\u005cupclbi.ttf
p3881
aVC:\u005cWindows\u005cFonts\u005candlso.ttf
p3882
aVC:\u005cWindows\u005cFonts\u005csegoeuiz.ttf
p3883
ag2797
ag2801
ag2805
ag2809
aVC:\u005cWindows\u005cFonts\u005cupcjb.ttf
p3884
ag2813
ag2817
ag2821
aVc:\u005cwindows\u005cfonts\u005cmsjh.ttf
p3885
aVc:\u005cwindows\u005cfonts\u005cgeorgia.ttf
p3886
ag2825
ag2829
ag2833
ag2837
ag2841
ag2845
aVc:\u005cwindows\u005cfonts\u005cupcli.ttf
p3887
aVc:\u005cwindows\u005cfonts\u005cmonbaiti.ttf
p3888
ag2849
ag2853
aVc:\u005cwindows\u005cfonts\u005ckaiu.ttf
p3889
ag2857
ag2861
ag2865
ag2869
ag2873
ag2877
ag2881
aVc:\u005cwindows\u005cfonts\u005ckokila.ttf
p3890
aVC:\u005cWindows\u005cFonts\u005cwingding.ttf
p3891
ag2885
ag2889
ag2893
aVc:\u005cwindows\u005cfonts\u005cmajallab.ttf
p3892
aVc:\u005cwindows\u005cfonts\u005cbrowaz.ttf
p3893
ag2897
aVC:\u005cWindows\u005cFonts\u005csymbol.ttf
p3894
aVC:\u005cWindows\u005cFonts\u005cupcdi.ttf
p3895
aVC:\u005cWindows\u005cFonts\u005cbrowaub.ttf
p3896
aVC:\u005cWindows\u005cFonts\u005caparaji.ttf
p3897
ag2901
aVc:\u005cwindows\u005cfonts\u005csegoesc.ttf
p3898
ag2905
ag2909
aVC:\u005cWindows\u005cFonts\u005cpalab.ttf
p3899
aVC:\u005cWindows\u005cFonts\u005cgisha.ttf
p3900
ag2913
aVC:\u005cWindows\u005cFonts\u005cmsyh.ttf
p3901
ag2917
ag2921
aVC:\u005cWindows\u005cFonts\u005carial.ttf
p3902
ag2925
ag2929
ag2933
ag2937
ag2941
ag2945
ag2949
ag2953
ag2957
ag2961
ag2965
aVc:\u005cwindows\u005cfonts\u005ccomic.ttf
p3903
ag2969
aVc:\u005cwindows\u005cfonts\u005csegoeprb.ttf
p3904
aVC:\u005cWindows\u005cFonts\u005csimsunb.ttf
p3905
ag2973
ag2977
ag2981
ag2985
ag2989
ag2993
ag2997
aVC:\u005cWindows\u005cFonts\u005cverdanab.ttf
p3906
ag3001
aVc:\u005cwindows\u005cfonts\u005ctahoma.ttf
p3907
ag3005
aVc:\u005cwindows\u005cfonts\u005ckalinga.ttf
p3908
ag3009
ag3013
ag3017
ag3021
ag3025
ag3029
aVc:\u005cwindows\u005cfonts\u005cmoolbor.ttf
p3909
aVc:\u005cwindows\u005cfonts\u005ccordia.ttf
p3910
aVc:\u005cwindows\u005cfonts\u005cframd.ttf
p3911
ag3033
ag3037
ag3041
ag3045
ag3049
ag3053
ag3057
ag3061
ag3065
ag3069
ag3073
ag3077
aVc:\u005cwindows\u005cfonts\u005ccordiai.ttf
p3912
ag3081
ag3085
ag3089
aVC:\u005cWindows\u005cFonts\u005cupceb.ttf
p3913
ag3093
ag3097
aVc:\u005cwindows\u005cfonts\u005cimpact.ttf
p3914
aVc:\u005cwindows\u005cfonts\u005cmalgun.ttf
p3915
ag3101
ag3105
ag3109
aVC:\u005cWindows\u005cFonts\u005ctaile.ttf
p3916
ag3113
ag3117
ag3121
aVC:\u005cWindows\u005cFonts\u005cahronbd.ttf
p3917
ag3125
ag3129
ag3133
ag3137
ag3141
ag3145
ag3149
ag3153
aVC:\u005cWindows\u005cFonts\u005cmsyhbd.ttf
p3918
ag3157
ag3161
ag3165
aVc:\u005cwindows\u005cfonts\u005cgeorgiai.ttf
p3919
ag3169
ag3173
aVc:\u005cwindows\u005cfonts\u005chimalaya.ttf
p3920
ag3177
ag3181
ag3185
ag3189
aVc:\u005cwindows\u005cfonts\u005cestre.ttf
p3921
ag3193
ag3197
ag3201
ag3205
ag3209
ag3213
ag3217
ag3221
ag3225
ag3229
aVc:\u005cwindows\u005cfonts\u005ccordiaz.ttf
p3922
aVC:\u005cWindows\u005cFonts\u005cariali.ttf
p3923
ag3233
ag3237
ag3241
ag3245
ag3249
ag3253
ag3257
ag3261
aVC:\u005cWindows\u005cFonts\u005cebrimabd.ttf
p3924
ag3265
ag3269
ag3273
ag3277
ag3281
ag3285
ag3289
aVc:\u005cwindows\u005cfonts\u005cangsau.ttf
p3925
ag3293
ag3297
ag3301
ag3305
ag3309
aVC:\u005cWindows\u005cFonts\u005csimfang.ttf
p3926
ag3313
aVc:\u005cwindows\u005cfonts\u005cangsaub.ttf
p3927
ag3317
ag3321
aVC:\u005cWindows\u005cFonts\u005cmangal.ttf
p3928
aVC:\u005cWindows\u005cFonts\u005csimpfxo.ttf
p3929
ag3325
ag3329
ag3333
ag3337
ag3341
ag3345
ag3349
ag3353
ag3357
ag3361
aVC:\u005cWindows\u005cFonts\u005cpala.ttf
p3930
ag3365
aVc:\u005cwindows\u005cfonts\u005csegoeuib.ttf
p3931
ag3369
ag3373
ag3377
ag3381
aVc:\u005cwindows\u005cfonts\u005csegoeuil.ttf
p3932
aVC:\u005cWindows\u005cFonts\u005cupcfi.ttf
p3933
ag3385
ag3389
ag3393
aVC:\u005cWindows\u005cFonts\u005crod.ttf
p3934
ag3397
ag3401
ag3405
aVC:\u005cWindows\u005cFonts\u005ctrebucit.ttf
p3935
ag3409
ag3413
aVC:\u005cWindows\u005cFonts\u005csimpo.ttf
p3936
ag3417
ag3421
ag3425
aVc:\u005cwindows\u005cfonts\u005cebrima.ttf
p3937
ag3429
aVC:\u005cWindows\u005cFonts\u005clucon.ttf
p3938
ag3433
ag3437
ag3441
aVC:\u005cWindows\u005cFonts\u005cvijaya.ttf
p3939
aVc:\u005cwindows\u005cfonts\u005ctrado.ttf
p3940
ag3445
ag3449
aVc:\u005cwindows\u005cfonts\u005cangsai.ttf
p3941
ag3453
aVC:\u005cWindows\u005cFonts\u005carabtype.ttf
p3942
ag3457
ag3461
aVc:\u005cwindows\u005cfonts\u005cmajalla.ttf
p3943
ag3465
aVc:\u005cwindows\u005cfonts\u005craavi.ttf
p3944
ag3469
aVc:\u005cwindows\u005cfonts\u005ctunga.ttf
p3945
ag3473
aVC:\u005cWindows\u005cFonts\u005ctimesbi.ttf
p3946
ag3477
ag3481
ag3485
ag3489
ag3493
ag3497
aVc:\u005cwindows\u005cfonts\u005cvrinda.ttf
p3947
ag3501
ag3505
ag3509
aVc:\u005cwindows\u005cfonts\u005cverdana.ttf
p3948
ag3513
ag3517
ag3521
ag3525
aVC:\u005cWindows\u005cFonts\u005cgeorgiaz.ttf
p3949
aVC:\u005cWindows\u005cFonts\u005cutsaah.ttf
p3950
aVC:\u005cWindows\u005cFonts\u005ccalibri.ttf
p3951
ag3529
ag3533
ag3537
ag3541
ag3545
aVc:\u005cwindows\u005cfonts\u005ctimesbd.ttf
p3952
aVc:\u005cwindows\u005cfonts\u005cupcki.ttf
p3953
ag3549
ag3553
ag3557
ag3561
ag3565
aVC:\u005cWindows\u005cFonts\u005cupckl.ttf
p3954
ag3569
ag3573
ag3577
aVC:\u005cWindows\u005cFonts\u005cangsaz.ttf
p3955
ag3581
aVC:\u005cWindows\u005cFonts\u005cleelawad.ttf
p3956
aVc:\u005cwindows\u005cfonts\u005cplantc.ttf
p3957
ag3585
ag3589
aVC:\u005cWindows\u005cFonts\u005cseguisym.ttf
p3958
ag3593
ag3597
ag3601
aVc:\u005cwindows\u005cfonts\u005cshruti.ttf
p3959
aVc:\u005cwindows\u005cfonts\u005cntailub.ttf
p3960
ag3605
ag3609
ag3613
ag3617
aVC:\u005cWindows\u005cFonts\u005cupcdl.ttf
p3961
aVC:\u005cWindows\u005cFonts\u005caparajbi.ttf
p3962
ag3621
aVc:\u005cwindows\u005cfonts\u005cpalabi.ttf
p3963
aVC:\u005cWindows\u005cFonts\u005ccordiaui.ttf
p3964
aVC:\u005cWindows\u005cFonts\u005cphagspa.ttf
p3965
ag3625
ag3629
ag3633
ag3637
ag3641
aVc:\u005cwindows\u005cfonts\u005cbrowa.ttf
p3966
ag3645
ag3649
aVC:\u005cWindows\u005cFonts\u005cupcei.ttf
p3967
ag3653
ag3657
ag3661
ag3665
aVc:\u005cwindows\u005cfonts\u005clathab.ttf
p3968
aVc:\u005cwindows\u005cfonts\u005cutsaahbi.ttf
p3969
ag3669
ag3673
ag3677
ag3681
ag3685
ag3689
ag3693
ag3697
ag3701
aVc:\u005cwindows\u005cfonts\u005cmvboli.ttf
p3970
aVC:\u005cWindows\u005cFonts\u005ccordiau.ttf
p3971
ag3705
aVC:\u005cWindows\u005cFonts\u005cangsaui.ttf
p3972
aVc:\u005cwindows\u005cfonts\u005clvnmbd.ttf
p3973
ag3709
ag3713
aVc:\u005cwindows\u005cfonts\u005ciskpotab.ttf
p3974
ag3717
ag3721
ag3725
ag3729
ag3733
ag3737
aVc:\u005cwindows\u005cfonts\u005ckartika.ttf
p3975
ag3741
aVc:\u005cwindows\u005cfonts\u005cdokchamp.ttf
p3976
ag3745
aVc:\u005cwindows\u005cfonts\u005cphagspab.ttf
p3977
aVC:\u005cWindows\u005cFonts\u005cgeorgiab.ttf
p3978
ag3749
ag3753
aVc:\u005cwindows\u005cfonts\u005cgishabd.ttf
p3979
ag3757
ag3761
ag3765
ag3769
asS'_FontManager__default_weight'
p3980
Vnormal
p3981
sS'_version'
p3982
I101
sS'default_size'
p3983
NsS'defaultFont'
p3984
(dp3985
g3772
VC:\u005cWinPython-32bit-2.7.9.2\u005cpython-2.7.9\u005clib\u005csite-packages\u005cmatplotlib\u005cmpl-data\u005cfonts\u005cpdfcorefonts\u005cCourier-BoldOblique.afm
p3986
sg3774
g107
ssS'afmfiles'
p3987
(lp3988
g3986
aVC:\u005cWinPython-32bit-2.7.9.2\u005cpython-2.7.9\u005clib\u005csite-packages\u005cmatplotlib\u005cmpl-data\u005cfonts\u005cpdfcorefonts\u005cTimes-Italic.afm
p3989
aVC:\u005cWinPython-32bit-2.7.9.2\u005cpython-2.7.9\u005clib\u005csite-packages\u005cmatplotlib\u005cmpl-data\u005cfonts\u005cafm\u005cpncb8a.afm
p3990
aVC:\u005cWinPython-32bit-2.7.9.2\u005cpython-2.7.9\u005clib\u005csite-packages\u005cmatplotlib\u005cmpl-data\u005cfonts\u005cpdfcorefonts\u005cTimes-Bold.afm
p3991
aVC:\u005cWinPython-32bit-2.7.9.2\u005cpython-2.7.9\u005clib\u005csite-packages\u005cmatplotlib\u005cmpl-data\u005cfonts\u005cpdfcorefonts\u005cHelvetica-Oblique.afm
p3992
aVC:\u005cWinPython-32bit-2.7.9.2\u005cpython-2.7.9\u005clib\u005csite-packages\u005cmatplotlib\u005cmpl-data\u005cfonts\u005cafm\u005cphvro8a.afm
p3993
aVC:\u005cWinPython-32bit-2.7.9.2\u005cpython-2.7.9\u005clib\u005csite-packages\u005cmatplotlib\u005cmpl-data\u005cfonts\u005cafm\u005cphvr8an.afm
p3994
aVC:\u005cWinPython-32bit-2.7.9.2\u005cpython-2.7.9\u005clib\u005csite-packages\u005cmatplotlib\u005cmpl-data\u005cfonts\u005cafm\u005cpagd8a.afm
p3995
aVC:\u005cWinPython-32bit-2.7.9.2\u005cpython-2.7.9\u005clib\u005csite-packages\u005cmatplotlib\u005cmpl-data\u005cfonts\u005cafm\u005cpcrro8a.afm
p3996
aVC:\u005cWinPython-32bit-2.7.9.2\u005cpython-2.7.9\u005clib\u005csite-packages\u005cmatplotlib\u005cmpl-data\u005cfonts\u005cpdfcorefonts\u005cHelvetica-BoldOblique.afm
p3997
aVC:\u005cWinPython-32bit-2.7.9.2\u005cpython-2.7.9\u005clib\u005csite-packages\u005cmatplotlib\u005cmpl-data\u005cfonts\u005cafm\u005cpbkdi8a.afm
p3998
aVC:\u005cWinPython-32bit-2.7.9.2\u005cpython-2.7.9\u005clib\u005csite-packages\u005cmatplotlib\u005cmpl-data\u005cfonts\u005cafm\u005cputr8a.afm
p3999
aVC:\u005cWinPython-32bit-2.7.9.2\u005cpython-2.7.9\u005clib\u005csite-packages\u005cmatplotlib\u005cmpl-data\u005cfonts\u005cafm\u005cpplri8a.afm
p4000
aVC:\u005cWinPython-32bit-2.7.9.2\u005cpython-2.7.9\u005clib\u005csite-packages\u005cmatplotlib\u005cmpl-data\u005cfonts\u005cafm\u005cptmr8a.afm
p4001
aVC:\u005cWinPython-32bit-2.7.9.2\u005cpython-2.7.9\u005clib\u005csite-packages\u005cmatplotlib\u005cmpl-data\u005cfonts\u005cafm\u005cpncbi8a.afm
p4002
aVC:\u005cWinPython-32bit-2.7.9.2\u005cpython-2.7.9\u005clib\u005csite-packages\u005cmatplotlib\u005cmpl-data\u005cfonts\u005cafm\u005ccmex10.afm
p4003
aVC:\u005cWinPython-32bit-2.7.9.2\u005cpython-2.7.9\u005clib\u005csite-packages\u005cmatplotlib\u005cmpl-data\u005cfonts\u005cafm\u005cpagdo8a.afm
p4004
aVC:\u005cWinPython-32bit-2.7.9.2\u005cpython-2.7.9\u005clib\u005csite-packages\u005cmatplotlib\u005cmpl-data\u005cfonts\u005cafm\u005cputb8a.afm
p4005
aVC:\u005cWinPython-32bit-2.7.9.2\u005cpython-2.7.9\u005clib\u005csite-packages\u005cmatplotlib\u005cmpl-data\u005cfonts\u005cpdfcorefonts\u005cCourier-Bold.afm
p4006
aVC:\u005cWinPython-32bit-2.7.9.2\u005cpython-2.7.9\u005clib\u005csite-packages\u005cmatplotlib\u005cmpl-data\u005cfonts\u005cafm\u005cpbkli8a.afm
p4007
aVC:\u005cWinPython-32bit-2.7.9.2\u005cpython-2.7.9\u005clib\u005csite-packages\u005cmatplotlib\u005cmpl-data\u005cfonts\u005cpdfcorefonts\u005cTimes-Roman.afm
p4008
aVC:\u005cWinPython-32bit-2.7.9.2\u005cpython-2.7.9\u005clib\u005csite-packages\u005cmatplotlib\u005cmpl-data\u005cfonts\u005cafm\u005ccmtt10.afm
p4009
aVC:\u005cWinPython-32bit-2.7.9.2\u005cpython-2.7.9\u005clib\u005csite-packages\u005cmatplotlib\u005cmpl-data\u005cfonts\u005cpdfcorefonts\u005cHelvetica.afm
p4010
aVC:\u005cWinPython-32bit-2.7.9.2\u005cpython-2.7.9\u005clib\u005csite-packages\u005cmatplotlib\u005cmpl-data\u005cfonts\u005cpdfcorefonts\u005cSymbol.afm
p4011
aVC:\u005cWinPython-32bit-2.7.9.2\u005cpython-2.7.9\u005clib\u005csite-packages\u005cmatplotlib\u005cmpl-data\u005cfonts\u005cafm\u005cpncr8a.afm
p4012
aVC:\u005cWinPython-32bit-2.7.9.2\u005cpython-2.7.9\u005clib\u005csite-packages\u005cmatplotlib\u005cmpl-data\u005cfonts\u005cafm\u005cptmbi8a.afm
p4013
aVC:\u005cWinPython-32bit-2.7.9.2\u005cpython-2.7.9\u005clib\u005csite-packages\u005cmatplotlib\u005cmpl-data\u005cfonts\u005cpdfcorefonts\u005cZapfDingbats.afm
p4014
aVC:\u005cWinPython-32bit-2.7.9.2\u005cpython-2.7.9\u005clib\u005csite-packages\u005cmatplotlib\u005cmpl-data\u005cfonts\u005cafm\u005cpagk8a.afm
p4015
aVC:\u005cWinPython-32bit-2.7.9.2\u005cpython-2.7.9\u005clib\u005csite-packages\u005cmatplotlib\u005cmpl-data\u005cfonts\u005cafm\u005cphvbo8a.afm
p4016
aVC:\u005cWinPython-32bit-2.7.9.2\u005cpython-2.7.9\u005clib\u005csite-packages\u005cmatplotlib\u005cmpl-data\u005cfonts\u005cafm\u005cphvbo8an.afm
p4017
aVC:\u005cWinPython-32bit-2.7.9.2\u005cpython-2.7.9\u005clib\u005csite-packages\u005cmatplotlib\u005cmpl-data\u005cfonts\u005cafm\u005cpbkl8a.afm
p4018
aVC:\u005cWinPython-32bit-2.7.9.2\u005cpython-2.7.9\u005clib\u005csite-packages\u005cmatplotlib\u005cmpl-data\u005cfonts\u005cafm\u005cpbkd8a.afm
p4019
aVC:\u005cWinPython-32bit-2.7.9.2\u005cpython-2.7.9\u005clib\u005csite-packages\u005cmatplotlib\u005cmpl-data\u005cfonts\u005cafm\u005cpzcmi8a.afm
p4020
aVC:\u005cWinPython-32bit-2.7.9.2\u005cpython-2.7.9\u005clib\u005csite-packages\u005cmatplotlib\u005cmpl-data\u005cfonts\u005cafm\u005cptmb8a.afm
p4021
aVC:\u005cWinPython-32bit-2.7.9.2\u005cpython-2.7.9\u005clib\u005csite-packages\u005cmatplotlib\u005cmpl-data\u005cfonts\u005cafm\u005cpcrb8a.afm
p4022
aVC:\u005cWinPython-32bit-2.7.9.2\u005cpython-2.7.9\u005clib\u005csite-packages\u005cmatplotlib\u005cmpl-data\u005cfonts\u005cafm\u005cpsyr.afm
p4023
aVC:\u005cWinPython-32bit-2.7.9.2\u005cpython-2.7.9\u005clib\u005csite-packages\u005cmatplotlib\u005cmpl-data\u005cfonts\u005cafm\u005ccmr10.afm
p4024
aVC:\u005cWinPython-32bit-2.7.9.2\u005cpython-2.7.9\u005clib\u005csite-packages\u005cmatplotlib\u005cmpl-data\u005cfonts\u005cafm\u005cphvro8an.afm
p4025
aVC:\u005cWinPython-32bit-2.7.9.2\u005cpython-2.7.9\u005clib\u005csite-packages\u005cmatplotlib\u005cmpl-data\u005cfonts\u005cafm\u005cputbi8a.afm
p4026
aVC:\u005cWinPython-32bit-2.7.9.2\u005cpython-2.7.9\u005clib\u005csite-packages\u005cmatplotlib\u005cmpl-data\u005cfonts\u005cafm\u005cpagko8a.afm
p4027
aVC:\u005cWinPython-32bit-2.7.9.2\u005cpython-2.7.9\u005clib\u005csite-packages\u005cmatplotlib\u005cmpl-data\u005cfonts\u005cafm\u005cphvlo8a.afm
p4028
aVC:\u005cWinPython-32bit-2.7.9.2\u005cpython-2.7.9\u005clib\u005csite-packages\u005cmatplotlib\u005cmpl-data\u005cfonts\u005cpdfcorefonts\u005cHelvetica-Bold.afm
p4029
aVC:\u005cWinPython-32bit-2.7.9.2\u005cpython-2.7.9\u005clib\u005csite-packages\u005cmatplotlib\u005cmpl-data\u005cfonts\u005cafm\u005ccmsy10.afm
p4030
aVC:\u005cWinPython-32bit-2.7.9.2\u005cpython-2.7.9\u005clib\u005csite-packages\u005cmatplotlib\u005cmpl-data\u005cfonts\u005cpdfcorefonts\u005cCourier-Oblique.afm
p4031
aVC:\u005cWinPython-32bit-2.7.9.2\u005cpython-2.7.9\u005clib\u005csite-packages\u005cmatplotlib\u005cmpl-data\u005cfonts\u005cafm\u005cpcrr8a.afm
p4032
aVC:\u005cWinPython-32bit-2.7.9.2\u005cpython-2.7.9\u005clib\u005csite-packages\u005cmatplotlib\u005cmpl-data\u005cfonts\u005cafm\u005cpncri8a.afm
p4033
aVC:\u005cWinPython-32bit-2.7.9.2\u005cpython-2.7.9\u005clib\u005csite-packages\u005cmatplotlib\u005cmpl-data\u005cfonts\u005cafm\u005cputri8a.afm
p4034
aVC:\u005cWinPython-32bit-2.7.9.2\u005cpython-2.7.9\u005clib\u005csite-packages\u005cmatplotlib\u005cmpl-data\u005cfonts\u005cafm\u005cphvr8a.afm
p4035
aVC:\u005cWinPython-32bit-2.7.9.2\u005cpython-2.7.9\u005clib\u005csite-packages\u005cmatplotlib\u005cmpl-data\u005cfonts\u005cafm\u005cpzdr.afm
p4036
aVC:\u005cWinPython-32bit-2.7.9.2\u005cpython-2.7.9\u005clib\u005csite-packages\u005cmatplotlib\u005cmpl-data\u005cfonts\u005cafm\u005cptmri8a.afm
p4037
aVC:\u005cWinPython-32bit-2.7.9.2\u005cpython-2.7.9\u005clib\u005csite-packages\u005cmatplotlib\u005cmpl-data\u005cfonts\u005cafm\u005cphvl8a.afm
p4038
aVC:\u005cWinPython-32bit-2.7.9.2\u005cpython-2.7.9\u005clib\u005csite-packages\u005cmatplotlib\u005cmpl-data\u005cfonts\u005cpdfcorefonts\u005cTimes-BoldItalic.afm
p4039
aVC:\u005cWinPython-32bit-2.7.9.2\u005cpython-2.7.9\u005clib\u005csite-packages\u005cmatplotlib\u005cmpl-data\u005cfonts\u005cpdfcorefonts\u005cCourier.afm
p4040
aVC:\u005cWinPython-32bit-2.7.9.2\u005cpython-2.7.9\u005clib\u005csite-packages\u005cmatplotlib\u005cmpl-data\u005cfonts\u005cafm\u005cpplb8a.afm
p4041
aVC:\u005cWinPython-32bit-2.7.9.2\u005cpython-2.7.9\u005clib\u005csite-packages\u005cmatplotlib\u005cmpl-data\u005cfonts\u005cafm\u005cphvb8a.afm
p4042
aVC:\u005cWinPython-32bit-2.7.9.2\u005cpython-2.7.9\u005clib\u005csite-packages\u005cmatplotlib\u005cmpl-data\u005cfonts\u005cafm\u005ccmmi10.afm
p4043
aVC:\u005cWinPython-32bit-2.7.9.2\u005cpython-2.7.9\u005clib\u005csite-packages\u005cmatplotlib\u005cmpl-data\u005cfonts\u005cafm\u005cpplr8a.afm
p4044
aVC:\u005cWinPython-32bit-2.7.9.2\u005cpython-2.7.9\u005clib\u005csite-packages\u005cmatplotlib\u005cmpl-data\u005cfonts\u005cafm\u005cphvb8an.afm
p4045
aVC:\u005cWinPython-32bit-2.7.9.2\u005cpython-2.7.9\u005clib\u005csite-packages\u005cmatplotlib\u005cmpl-data\u005cfonts\u005cafm\u005cpcrbo8a.afm
p4046
aVC:\u005cWinPython-32bit-2.7.9.2\u005cpython-2.7.9\u005clib\u005csite-packages\u005cmatplotlib\u005cmpl-data\u005cfonts\u005cafm\u005cpplbi8a.afm
p4047
asS'afmlist'
p4048
(lp4049
g1
(g8
g3
NtRp4050
(dp4051
g11
Vitalic
p4052
sg13
S'Courier'
p4053
sg15
I700
sg16
Vnormal
p4054
sg17
g4054
sg18
g3986
sg20
Vscalable
p4055
sbag1
(g8
g3
NtRp4056
(dp4057
g11
g4052
sg13
S'Times'
p4058
sg15
I500
sg16
g4054
sg17
g4054
sg18
g3989
sg20
g4055
sbag1
(g8
g3
NtRp4059
(dp4060
g11
g4054
sg13
S'New Century Schoolbook'
p4061
sg15
I700
sg16
g4054
sg17
g4054
sg18
g3990
sg20
g4055
sbag1
(g8
g3
NtRp4062
(dp4063
g11
g4054
sg13
S'Times'
p4064
sg15
I700
sg16
g4054
sg17
g4054
sg18
g3991
sg20
g4055
sbag1
(g8
g3
NtRp4065
(dp4066
g11
g4052
sg13
S'Helvetica'
p4067
sg15
I500
sg16
g4054
sg17
g4054
sg18
g3992
sg20
g4055
sbag1
(g8
g3
NtRp4068
(dp4069
g11
g4052
sg13
S'Helvetica'
p4070
sg15
I500
sg16
g4054
sg17
g4054
sg18
g3993
sg20
g4055
sbag1
(g8
g3
NtRp4071
(dp4072
g11
g4054
sg13
S'Helvetica'
p4073
sg15
I500
sg16
Vcondensed
p4074
sg17
g4054
sg18
g3994
sg20
g4055
sbag1
(g8
g3
NtRp4075
(dp4076
g11
g4054
sg13
S'ITC Avant Garde Gothic'
p4077
sg15
I600
sg16
g4054
sg17
g4054
sg18
g3995
sg20
g4055
sbag1
(g8
g3
NtRp4078
(dp4079
g11
g4052
sg13
S'Courier'
p4080
sg15
I500
sg16
g4054
sg17
g4054
sg18
g3996
sg20
g4055
sbag1
(g8
g3
NtRp4081
(dp4082
g11
g4052
sg13
S'Helvetica'
p4083
sg15
I700
sg16
g4054
sg17
g4054
sg18
g3997
sg20
g4055
sbag1
(g8
g3
NtRp4084
(dp4085
g11
g4052
sg13
S'ITC Bookman'
p4086
sg15
I600
sg16
g4054
sg17
g4054
sg18
g3998
sg20
g4055
sbag1
(g8
g3
NtRp4087
(dp4088
g11
g4054
sg13
S'Utopia'
p4089
sg15
I400
sg16
g4054
sg17
g4054
sg18
g3999
sg20
g4055
sbag1
(g8
g3
NtRp4090
(dp4091
g11
g4052
sg13
S'Palatino'
p4092
sg15
I500
sg16
g4054
sg17
g4054
sg18
g4000
sg20
g4055
sbag1
(g8
g3
NtRp4093
(dp4094
g11
g4054
sg13
S'Times'
p4095
sg15
I500
sg16
g4054
sg17
g4054
sg18
g4001
sg20
g4055
sbag1
(g8
g3
NtRp4096
(dp4097
g11
g4052
sg13
S'New Century Schoolbook'
p4098
sg15
I700
sg16
g4054
sg17
g4054
sg18
g4002
sg20
g4055
sbag1
(g8
g3
NtRp4099
(dp4100
g11
g4054
sg13
S'Computer Modern'
p4101
sg15
I500
sg16
g4054
sg17
g4054
sg18
g4003
sg20
g4055
sbag1
(g8
g3
NtRp4102
(dp4103
g11
g4052
sg13
S'ITC Avant Garde Gothic'
p4104
sg15
I600
sg16
g4054
sg17
g4054
sg18
g4004
sg20
g4055
sbag1
(g8
g3
NtRp4105
(dp4106
g11
g4054
sg13
S'Utopia'
p4107
sg15
I700
sg16
g4054
sg17
g4054
sg18
g4005
sg20
g4055
sbag1
(g8
g3
NtRp4108
(dp4109
g11
g4054
sg13
S'Courier'
p4110
sg15
I700
sg16
g4054
sg17
g4054
sg18
g4006
sg20
g4055
sbag1
(g8
g3
NtRp4111
(dp4112
g11
g4052
sg13
S'ITC Bookman'
p4113
sg15
I200
sg16
g4054
sg17
g4054
sg18
g4007
sg20
g4055
sbag1
(g8
g3
NtRp4114
(dp4115
g11
g4054
sg13
S'Times'
p4116
sg15
I500
sg16
g4054
sg17
g4054
sg18
g4008
sg20
g4055
sbag1
(g8
g3
NtRp4117
(dp4118
g11
g4054
sg13
S'Computer Modern'
p4119
sg15
I500
sg16
g4054
sg17
g4054
sg18
g4009
sg20
g4055
sbag1
(g8
g3
NtRp4120
(dp4121
g11
g4054
sg13
S'Helvetica'
p4122
sg15
I500
sg16
g4054
sg17
g4054
sg18
g4010
sg20
g4055
sbag1
(g8
g3
NtRp4123
(dp4124
g11
g4054
sg13
S'Symbol'
p4125
sg15
I500
sg16
g4054
sg17
g4054
sg18
g4011
sg20
g4055
sbag1
(g8
g3
NtRp4126
(dp4127
g11
g4054
sg13
S'New Century Schoolbook'
p4128
sg15
I500
sg16
g4054
sg17
g4054
sg18
g4012
sg20
g4055
sbag1
(g8
g3
NtRp4129
(dp4130
g11
g4052
sg13
S'Times'
p4131
sg15
I700
sg16
g4054
sg17
g4054
sg18
g4013
sg20
g4055
sbag1
(g8
g3
NtRp4132
(dp4133
g11
g4054
sg13
S'ZapfDingbats'
p4134
sg15
I500
sg16
g4054
sg17
g4054
sg18
g4014
sg20
g4055
sbag1
(g8
g3
NtRp4135
(dp4136
g11
g4054
sg13
S'ITC Avant Garde Gothic'
p4137
sg15
I400
sg16
g4054
sg17
g4054
sg18
g4015
sg20
g4055
sbag1
(g8
g3
NtRp4138
(dp4139
g11
g4052
sg13
S'Helvetica'
p4140
sg15
I700
sg16
g4054
sg17
g4054
sg18
g4016
sg20
g4055
sbag1
(g8
g3
NtRp4141
(dp4142
g11
g4052
sg13
S'Helvetica'
p4143
sg15
I700
sg16
g4074
sg17
g4054
sg18
g4017
sg20
g4055
sbag1
(g8
g3
NtRp4144
(dp4145
g11
g4054
sg13
S'ITC Bookman'
p4146
sg15
I200
sg16
g4054
sg17
g4054
sg18
g4018
sg20
g4055
sbag1
(g8
g3
NtRp4147
(dp4148
g11
g4054
sg13
S'ITC Bookman'
p4149
sg15
I600
sg16
g4054
sg17
g4054
sg18
g4019
sg20
g4055
sbag1
(g8
g3
NtRp4150
(dp4151
g11
g4052
sg13
S'ITC Zapf Chancery'
p4152
sg15
I500
sg16
g4054
sg17
g4054
sg18
g4020
sg20
g4055
sbag1
(g8
g3
NtRp4153
(dp4154
g11
g4054
sg13
S'Times'
p4155
sg15
I700
sg16
g4054
sg17
g4054
sg18
g4021
sg20
g4055
sbag1
(g8
g3
NtRp4156
(dp4157
g11
g4054
sg13
S'Courier'
p4158
sg15
I700
sg16
g4054
sg17
g4054
sg18
g4022
sg20
g4055
sbag1
(g8
g3
NtRp4159
(dp4160
g11
g4054
sg13
S'Symbol'
p4161
sg15
I500
sg16
g4054
sg17
g4054
sg18
g4023
sg20
g4055
sbag1
(g8
g3
NtRp4162
(dp4163
g11
g4054
sg13
S'Computer Modern'
p4164
sg15
I500
sg16
g4054
sg17
g4054
sg18
g4024
sg20
g4055
sbag1
(g8
g3
NtRp4165
(dp4166
g11
g4052
sg13
S'Helvetica'
p4167
sg15
I500
sg16
g4074
sg17
g4054
sg18
g4025
sg20
g4055
sbag1
(g8
g3
NtRp4168
(dp4169
g11
g4052
sg13
S'Utopia'
p4170
sg15
I700
sg16
g4054
sg17
g4054
sg18
g4026
sg20
g4055
sbag1
(g8
g3
NtRp4171
(dp4172
g11
g4052
sg13
S'ITC Avant Garde Gothic'
p4173
sg15
I400
sg16
g4054
sg17
g4054
sg18
g4027
sg20
g4055
sbag1
(g8
g3
NtRp4174
(dp4175
g11
g4052
sg13
S'Helvetica'
p4176
sg15
I200
sg16
g4054
sg17
g4054
sg18
g4028
sg20
g4055
sbag1
(g8
g3
NtRp4177
(dp4178
g11
g4054
sg13
S'Helvetica'
p4179
sg15
I700
sg16
g4054
sg17
g4054
sg18
g4029
sg20
g4055
sbag1
(g8
g3
NtRp4180
(dp4181
g11
g4052
sg13
S'Computer Modern'
p4182
sg15
I500
sg16
g4054
sg17
g4054
sg18
g4030
sg20
g4055
sbag1
(g8
g3
NtRp4183
(dp4184
g11
g4052
sg13
S'Courier'
p4185
sg15
I500
sg16
g4054
sg17
g4054
sg18
g4031
sg20
g4055
sbag1
(g8
g3
NtRp4186
(dp4187
g11
g4054
sg13
S'Courier'
p4188
sg15
I500
sg16
g4054
sg17
g4054
sg18
g4032
sg20
g4055
sbag1
(g8
g3
NtRp4189
(dp4190
g11
g4052
sg13
S'New Century Schoolbook'
p4191
sg15
I500
sg16
g4054
sg17
g4054
sg18
g4033
sg20
g4055
sbag1
(g8
g3
NtRp4192
(dp4193
g11
g4052
sg13
S'Utopia'
p4194
sg15
I400
sg16
g4054
sg17
g4054
sg18
g4034
sg20
g4055
sbag1
(g8
g3
NtRp4195
(dp4196
g11
g4054
sg13
S'Helvetica'
p4197
sg15
I500
sg16
g4054
sg17
g4054
sg18
g4035
sg20
g4055
sbag1
(g8
g3
NtRp4198
(dp4199
g11
g4054
sg13
S'ITC Zapf Dingbats'
p4200
sg15
I500
sg16
g4054
sg17
g4054
sg18
g4036
sg20
g4055
sbag1
(g8
g3
NtRp4201
(dp4202
g11
g4052
sg13
S'Times'
p4203
sg15
I500
sg16
g4054
sg17
g4054
sg18
g4037
sg20
g4055
sbag1
(g8
g3
NtRp4204
(dp4205
g11
g4054
sg13
S'Helvetica'
p4206
sg15
I200
sg16
g4054
sg17
g4054
sg18
g4038
sg20
g4055
sbag1
(g8
g3
NtRp4207
(dp4208
g11
g4052
sg13
S'Times'
p4209
sg15
I700
sg16
g4054
sg17
g4054
sg18
g4039
sg20
g4055
sbag1
(g8
g3
NtRp4210
(dp4211
g11
g4054
sg13
S'Courier'
p4212
sg15
I500
sg16
g4054
sg17
g4054
sg18
g4040
sg20
g4055
sbag1
(g8
g3
NtRp4213
(dp4214
g11
g4054
sg13
S'Palatino'
p4215
sg15
I700
sg16
g4054
sg17
g4054
sg18
g4041
sg20
g4055
sbag1
(g8
g3
NtRp4216
(dp4217
g11
g4054
sg13
S'Helvetica'
p4218
sg15
I700
sg16
g4054
sg17
g4054
sg18
g4042
sg20
g4055
sbag1
(g8
g3
NtRp4219
(dp4220
g11
g4052
sg13
S'Computer Modern'
p4221
sg15
I500
sg16
g4054
sg17
g4054
sg18
g4043
sg20
g4055
sbag1
(g8
g3
NtRp4222
(dp4223
g11
g4054
sg13
S'Palatino'
p4224
sg15
I500
sg16
g4054
sg17
g4054
sg18
g4044
sg20
g4055
sbag1
(g8
g3
NtRp4225
(dp4226
g11
g4054
sg13
S'Helvetica'
p4227
sg15
I700
sg16
g4074
sg17
g4054
sg18
g4045
sg20
g4055
sbag1
(g8
g3
NtRp4228
(dp4229
g11
g4052
sg13
S'Courier'
p4230
sg15
I700
sg16
g4054
sg17
g4054
sg18
g4046
sg20
g4055
sbag1
(g8
g3
NtRp4231
(dp4232
g11
g4052
sg13
S'Palatino'
p4233
sg15
I700
sg16
g4054
sg17
g4054
sg18
g4047
sg20
g4055
sbasb.